SF:/Users/apoorvsadana/Documents/GitHub/indexer-service/src/config.rs
FN:199,_RNCNCNvNtCscvED46PD3Z7_15indexer_service6config20establish_connection0s_0B7_
FN:201,_RNCNCNCNvNtCscvED46PD3Z7_15indexer_service6config20establish_connection0s_00B9_
FN:217,_RNCNvNtCscvED46PD3Z7_15indexer_service6config10root_certs0B5_
FN:65,_RNvMNtCscvED46PD3Z7_15indexer_service6configNtB2_6Config4pool
FN:57,_RNvMNtCscvED46PD3Z7_15indexer_service6configNtB2_6Config10sqs_client
FN:214,_RNvNtCscvED46PD3Z7_15indexer_service6config10root_certs
FN:198,_RNCNCNvNtCscvED46PD3Z7_15indexer_service6config20establish_connection00B7_
FN:189,_RNvNtCscvED46PD3Z7_15indexer_service6config20establish_connection
FN:180,_RNvNtCscvED46PD3Z7_15indexer_service6config17config_force_init
FN:111,_RNvNtCscvED46PD3Z7_15indexer_service6config11init_config
FN:170,_RNvNtCscvED46PD3Z7_15indexer_service6config6config
FN:61,_RNvMNtCscvED46PD3Z7_15indexer_service6configNtB2_6Config9s3_client
FN:190,_RNCNvNtCscvED46PD3Z7_15indexer_service6config20establish_connection0B5_
FN:49,_RNvMNtCscvED46PD3Z7_15indexer_service6configNtB2_6Config11server_host
FN:35,_RNvXs0_NtCscvED46PD3Z7_15indexer_service6configNtB5_14DatabaseConfigNtNtCs7uf0n3bS6vX_4core3fmt5Debug3fmt
FN:69,_RNvMNtCscvED46PD3Z7_15indexer_service6configNtB2_6Config6db_url
FN:53,_RNvMNtCscvED46PD3Z7_15indexer_service6configNtB2_6Config11server_port
FN:29,_RNvXs_NtCscvED46PD3Z7_15indexer_service6configNtB4_12ServerConfigNtNtCs7uf0n3bS6vX_4core3fmt5Debug3fmt
FN:180,_RNCNvNtCscvED46PD3Z7_15indexer_service6config17config_force_init0B5_
FN:128,_RNCNCNvNtCscvED46PD3Z7_15indexer_service6config11init_config0s0_0B7_
FN:170,_RNCNvNtCscvED46PD3Z7_15indexer_service6config6config0B5_
FN:115,_RNCNCNvNtCscvED46PD3Z7_15indexer_service6config11init_config00B7_
FN:116,_RNCNCNvNtCscvED46PD3Z7_15indexer_service6config11init_config0s_0B7_
FN:171,_RNCNCNCNvNtCscvED46PD3Z7_15indexer_service6config6config000B9_
FN:111,_RNCNvNtCscvED46PD3Z7_15indexer_service6config11init_config0B5_
FNDA:34,_RNCNCNvNtCscvED46PD3Z7_15indexer_service6config20establish_connection0s_0B7_
FNDA:0,_RNCNCNCNvNtCscvED46PD3Z7_15indexer_service6config20establish_connection0s_00B9_
FNDA:5610,_RNCNvNtCscvED46PD3Z7_15indexer_service6config10root_certs0B5_
FNDA:28,_RNvMNtCscvED46PD3Z7_15indexer_service6configNtB2_6Config4pool
FNDA:25,_RNvMNtCscvED46PD3Z7_15indexer_service6configNtB2_6Config10sqs_client
FNDA:34,_RNvNtCscvED46PD3Z7_15indexer_service6config10root_certs
FNDA:0,_RNCNCNvNtCscvED46PD3Z7_15indexer_service6config20establish_connection00B7_
FNDA:34,_RNvNtCscvED46PD3Z7_15indexer_service6config20establish_connection
FNDA:17,_RNvNtCscvED46PD3Z7_15indexer_service6config17config_force_init
FNDA:17,_RNvNtCscvED46PD3Z7_15indexer_service6config11init_config
FNDA:77,_RNvNtCscvED46PD3Z7_15indexer_service6config6config
FNDA:12,_RNvMNtCscvED46PD3Z7_15indexer_service6configNtB2_6Config9s3_client
FNDA:34,_RNCNvNtCscvED46PD3Z7_15indexer_service6config20establish_connection0B5_
FNDA:0,_RNvMNtCscvED46PD3Z7_15indexer_service6configNtB2_6Config11server_host
FNDA:0,_RNvXs0_NtCscvED46PD3Z7_15indexer_service6configNtB5_14DatabaseConfigNtNtCs7uf0n3bS6vX_4core3fmt5Debug3fmt
FNDA:0,_RNvMNtCscvED46PD3Z7_15indexer_service6configNtB2_6Config6db_url
FNDA:0,_RNvMNtCscvED46PD3Z7_15indexer_service6configNtB2_6Config11server_port
FNDA:0,_RNvXs_NtCscvED46PD3Z7_15indexer_service6configNtB4_12ServerConfigNtNtCs7uf0n3bS6vX_4core3fmt5Debug3fmt
FNDA:17,_RNCNvNtCscvED46PD3Z7_15indexer_service6config17config_force_init0B5_
FNDA:0,_RNCNCNvNtCscvED46PD3Z7_15indexer_service6config11init_config0s0_0B7_
FNDA:77,_RNCNvNtCscvED46PD3Z7_15indexer_service6config6config0B5_
FNDA:0,_RNCNCNvNtCscvED46PD3Z7_15indexer_service6config11init_config00B7_
FNDA:0,_RNCNCNvNtCscvED46PD3Z7_15indexer_service6config11init_config0s_0B7_
FNDA:17,_RNCNCNCNvNtCscvED46PD3Z7_15indexer_service6config6config000B9_
FNDA:17,_RNCNvNtCscvED46PD3Z7_15indexer_service6config11init_config0B5_
FNF:25
FNH:15
DA:29,0
DA:35,0
DA:49,0
DA:50,0
DA:51,0
DA:53,0
DA:54,0
DA:55,0
DA:57,25
DA:58,25
DA:59,25
DA:61,12
DA:62,12
DA:63,12
DA:65,28
DA:66,28
DA:67,28
DA:69,0
DA:70,0
DA:71,0
DA:111,17
DA:112,17
DA:113,17
DA:114,17
DA:115,17
DA:116,17
DA:117,17
DA:118,17
DA:119,17
DA:120,17
DA:121,17
DA:122,17
DA:123,17
DA:124,17
DA:125,17
DA:126,17
DA:127,17
DA:128,17
DA:129,17
DA:130,17
DA:131,17
DA:132,17
DA:133,17
DA:134,17
DA:135,17
DA:136,17
DA:137,17
DA:138,17
DA:141,170
DA:142,17
DA:143,34
DA:144,17
DA:145,17
DA:146,187
DA:149,17
DA:151,17
DA:152,17
DA:153,17
DA:154,17
DA:155,17
DA:156,17
DA:157,17
DA:158,17
DA:159,17
DA:160,17
DA:161,17
DA:162,17
DA:163,17
DA:164,17
DA:165,17
DA:166,17
DA:167,17
DA:168,17
DA:170,77
DA:171,391
DA:172,77
DA:173,77
DA:180,17
DA:181,17
DA:182,0
DA:184,391
DA:187,17
DA:189,34
DA:190,34
DA:191,34
DA:192,34
DA:193,34
DA:194,34
DA:195,34
DA:196,34
DA:197,34
DA:198,204
DA:199,34
DA:200,1571
DA:201,0
DA:202,17
DA:203,34
DA:204,136
DA:205,34
DA:206,34
DA:207,34
DA:214,34
DA:215,34
DA:216,34
DA:217,5610
DA:218,34
DA:219,34
DA:220,34
BRF:0
BRH:0
LF:121
LH:103
end_of_record
SF:/Users/apoorvsadana/Documents/GitHub/indexer-service/src/consumers/indexers.rs
FN:11,_RNvNtNtCscvED46PD3Z7_15indexer_service9consumers8indexers21consume_start_indexer
FN:14,_RNCNCNCNvNtNtCscvED46PD3Z7_15indexer_service9consumers8indexers21consume_start_indexer00s_0Bb_
FN:30,_RNCNvNtNtCscvED46PD3Z7_15indexer_service9consumers8indexers22consume_failed_indexer0B7_
FN:30,_RNvNtNtCscvED46PD3Z7_15indexer_service9consumers8indexers22consume_failed_indexer
FN:53,_RNvXNtNtCscvED46PD3Z7_15indexer_service9consumers8indexersNtB2_16IndexerConsumersNtB4_9Consumers14init_consumers
FN:53,_RNCNvXNtNtCscvED46PD3Z7_15indexer_service9consumers8indexersNtB4_16IndexerConsumersNtB6_9Consumers14init_consumers0B8_
FN:36,_RNCNCNCNvNtNtCscvED46PD3Z7_15indexer_service9consumers8indexers22consume_failed_indexer000Bb_
FN:13,_RNCNCNvNtNtCscvED46PD3Z7_15indexer_service9consumers8indexers21consume_start_indexer00B9_
FN:18,_RNCNCNCNvNtNtCscvED46PD3Z7_15indexer_service9consumers8indexers21consume_start_indexer000Bb_
FN:11,_RNCNvNtNtCscvED46PD3Z7_15indexer_service9consumers8indexers21consume_start_indexer0B7_
FN:32,_RNCNCNvNtNtCscvED46PD3Z7_15indexer_service9consumers8indexers22consume_failed_indexer00B9_
FN:33,_RNCNCNCNvNtNtCscvED46PD3Z7_15indexer_service9consumers8indexers22consume_failed_indexer00s_0Bb_
FNDA:0,_RNvNtNtCscvED46PD3Z7_15indexer_service9consumers8indexers21consume_start_indexer
FNDA:0,_RNCNCNCNvNtNtCscvED46PD3Z7_15indexer_service9consumers8indexers21consume_start_indexer00s_0Bb_
FNDA:0,_RNCNvNtNtCscvED46PD3Z7_15indexer_service9consumers8indexers22consume_failed_indexer0B7_
FNDA:0,_RNvNtNtCscvED46PD3Z7_15indexer_service9consumers8indexers22consume_failed_indexer
FNDA:0,_RNvXNtNtCscvED46PD3Z7_15indexer_service9consumers8indexersNtB2_16IndexerConsumersNtB4_9Consumers14init_consumers
FNDA:0,_RNCNvXNtNtCscvED46PD3Z7_15indexer_service9consumers8indexersNtB4_16IndexerConsumersNtB6_9Consumers14init_consumers0B8_
FNDA:0,_RNCNCNCNvNtNtCscvED46PD3Z7_15indexer_service9consumers8indexers22consume_failed_indexer000Bb_
FNDA:0,_RNCNCNvNtNtCscvED46PD3Z7_15indexer_service9consumers8indexers21consume_start_indexer00B9_
FNDA:0,_RNCNCNCNvNtNtCscvED46PD3Z7_15indexer_service9consumers8indexers21consume_start_indexer000Bb_
FNDA:0,_RNCNvNtNtCscvED46PD3Z7_15indexer_service9consumers8indexers21consume_start_indexer0B7_
FNDA:0,_RNCNCNvNtNtCscvED46PD3Z7_15indexer_service9consumers8indexers22consume_failed_indexer00B9_
FNDA:0,_RNCNCNCNvNtNtCscvED46PD3Z7_15indexer_service9consumers8indexers22consume_failed_indexer00s_0Bb_
FNF:12
FNH:0
DA:11,0
DA:12,0
DA:13,0
DA:14,0
DA:15,0
DA:16,0
DA:17,0
DA:18,0
DA:19,0
DA:21,0
DA:22,0
DA:23,0
DA:24,0
DA:25,0
DA:27,0
DA:28,0
DA:30,0
DA:31,0
DA:32,0
DA:33,0
DA:35,0
DA:36,0
DA:37,0
DA:38,0
DA:39,0
DA:41,0
DA:42,0
DA:43,0
DA:44,0
DA:45,0
DA:47,0
DA:48,0
DA:53,0
DA:54,0
DA:55,0
DA:56,0
DA:57,0
BRF:0
BRH:0
LF:49
LH:0
end_of_record
SF:/Users/apoorvsadana/Documents/GitHub/indexer-service/src/consumers/mod.rs
FN:15,_RNvNtCscvED46PD3Z7_15indexer_service9consumers15get_credentials
FN:25,_RNvNtCscvED46PD3Z7_15indexer_service9consumers14init_consumers
FN:25,_RNCNvNtCscvED46PD3Z7_15indexer_service9consumers14init_consumers0B5_
FNDA:0,_RNvNtCscvED46PD3Z7_15indexer_service9consumers15get_credentials
FNDA:0,_RNvNtCscvED46PD3Z7_15indexer_service9consumers14init_consumers
FNDA:0,_RNCNvNtCscvED46PD3Z7_15indexer_service9consumers14init_consumers0B5_
FNF:3
FNH:0
DA:15,0
DA:16,0
DA:17,0
DA:18,0
DA:25,0
DA:26,0
DA:27,0
DA:28,0
BRF:0
BRH:0
LF:9
LH:0
end_of_record
SF:/Users/apoorvsadana/Documents/GitHub/indexer-service/src/domain/models/indexer.rs
FN:27,_RINvXs_NvXNvNtNtNtCscvED46PD3Z7_15indexer_service6domain6models7indexers1_1__NtBa_11IndexerTypeNtNtCseK5fOxzA7Ha_5serde2de11Deserialize11deserializeNtB5_7___FieldB1v_11deserializeQINtNtCsh37VWHmGiB8_10serde_json2de12DeserializerNtNtB2X_4read9SliceReadEEBg_
FN:17,_RINvXs_NvXNvNtNtNtCscvED46PD3Z7_15indexer_service6domain6models7indexers_1__NtBa_13IndexerStatusNtNtCseK5fOxzA7Ha_5serde2de11Deserialize11deserializeNtB5_7___FieldB1w_11deserializeQINtNtCsh37VWHmGiB8_10serde_json2de12DeserializerNtNtB2Y_4read9SliceReadEEBg_
FN:34,_RINvXs0_NvXNvNtNtNtCscvED46PD3Z7_15indexer_service6domain6models7indexers3_1__NtBb_12IndexerModelNtNtCseK5fOxzA7Ha_5serde2de11Deserialize11deserializeNtB6_9___VisitorNtB1z_7Visitor9visit_seqINtNtCsh37VWHmGiB8_10serde_json2de9SeqAccessNtNtB37_4read9SliceReadEEBh_
FN:34,_RINvXs0_NvXNvNtNtNtCscvED46PD3Z7_15indexer_service6domain6models7indexers3_1__NtBb_12IndexerModelNtNtCseK5fOxzA7Ha_5serde2de11Deserialize11deserializeNtB6_9___VisitorNtB1z_7Visitor9visit_mapINtNtCsh37VWHmGiB8_10serde_json2de9MapAccessNtNtB37_4read9SliceReadEEBh_
FN:17,_RINvXNvNtNtNtCscvED46PD3Z7_15indexer_service6domain6models7indexers_1__NtB5_13IndexerStatusNtNtCseK5fOxzA7Ha_5serde2de11Deserialize11deserializeINtNvNtNtB1v_9___private2de13missing_field24MissingFieldDeserializerNtNtCsh37VWHmGiB8_10serde_json5error5ErrorEEBb_
FN:34,_RINvXs_NvXNvNtNtNtCscvED46PD3Z7_15indexer_service6domain6models7indexers3_1__NtBa_12IndexerModelNtNtCseK5fOxzA7Ha_5serde2de11Deserialize11deserializeNtB5_7___FieldB1w_11deserializeINtNtCsh37VWHmGiB8_10serde_json2de6MapKeyNtNtB2X_4read9SliceReadEEBg_
FN:27,_RINvXNvNtNtNtCscvED46PD3Z7_15indexer_service6domain6models7indexers1_1__NtB5_11IndexerTypeNtNtCseK5fOxzA7Ha_5serde2de11Deserialize11deserializeINtNvNtNtB1u_9___private2de13missing_field24MissingFieldDeserializerNtNtCsh37VWHmGiB8_10serde_json5error5ErrorEEBb_
FN:27,_RNvXsc_NtNtNtCscvED46PD3Z7_15indexer_service6domain6models7indexerNtB5_11IndexerTypeNtNtCs7uf0n3bS6vX_4core3cmp9PartialEq2eq
FN:17,_RNvXs0_NtNtNtCscvED46PD3Z7_15indexer_service6domain6models7indexerNtB5_13IndexerStatusNtNtCs7uf0n3bS6vX_4core5clone5Clone5clone
FN:27,_RNvXs8_NtNtNtCscvED46PD3Z7_15indexer_service6domain6models7indexerNtB5_11IndexerTypeNtNtCs7uf0n3bS6vX_4core5clone5Clone5clone
FN:34,_RNvXsg_NtNtNtCscvED46PD3Z7_15indexer_service6domain6models7indexerNtB5_12IndexerModelNtNtCs7uf0n3bS6vX_4core5clone5Clone5clone
FN:17,_RNvXs4_NtNtNtCscvED46PD3Z7_15indexer_service6domain6models7indexerNtB5_13IndexerStatusNtNtCs7uf0n3bS6vX_4core3cmp9PartialEq2eq
FN:34,_RINvXNvXNvNtNtNtCscvED46PD3Z7_15indexer_service6domain6models7indexers3_1__NtB8_12IndexerModelNtNtCseK5fOxzA7Ha_5serde2de11Deserialize11deserializeNtB3_14___FieldVisitorNtB1w_7Visitor11visit_bytespEBe_
FN:34,_RNvXNvXNvNtNtNtCscvED46PD3Z7_15indexer_service6domain6models7indexers3_1__NtB7_12IndexerModelNtNtCseK5fOxzA7Ha_5serde2de11Deserialize11deserializeNtB2_14___FieldVisitorNtB1v_7Visitor9expecting
FN:27,_RINvXNvXNvNtNtNtCscvED46PD3Z7_15indexer_service6domain6models7indexers1_1__NtB8_11IndexerTypeNtNtCseK5fOxzA7Ha_5serde2de11Deserialize11deserializeNtB3_14___FieldVisitorNtB1v_7Visitor11visit_bytespEBe_
FN:17,_RINvXNvXNvNtNtNtCscvED46PD3Z7_15indexer_service6domain6models7indexers_1__NtB8_13IndexerStatusNtNtCseK5fOxzA7Ha_5serde2de11Deserialize11deserializeNtB3_14___FieldVisitorNtB1w_7Visitor11visit_bytespEBe_
FN:34,_RNvXsh_NtNtNtCscvED46PD3Z7_15indexer_service6domain6models7indexerNtB5_12IndexerModelNtNtCs7uf0n3bS6vX_4core7default7Default7default
FN:27,_RNvXse_NtNtNtCscvED46PD3Z7_15indexer_service6domain6models7indexerNtB5_11IndexerTypeINtNtCs7uf0n3bS6vX_4core7convert7TryFromReE8try_from
FN:17,_RINvXNvXNvNtNtNtCscvED46PD3Z7_15indexer_service6domain6models7indexers_1__NtB8_13IndexerStatusNtNtCseK5fOxzA7Ha_5serde2de11Deserialize11deserializeNtB3_14___FieldVisitorNtB1w_7Visitor9visit_u64pEBe_
FN:34,_RINvXNvXNvNtNtNtCscvED46PD3Z7_15indexer_service6domain6models7indexers3_1__NtB8_12IndexerModelNtNtCseK5fOxzA7Ha_5serde2de11Deserialize11deserializeNtB3_14___FieldVisitorNtB1w_7Visitor9visit_u64pEBe_
FN:27,_RNvXs0_NvXNvNtNtNtCscvED46PD3Z7_15indexer_service6domain6models7indexers1_1__NtBa_11IndexerTypeNtNtCseK5fOxzA7Ha_5serde2de11Deserialize11deserializeNtB5_9___VisitorNtB1x_7Visitor9expecting
FN:27,_RINvXNvXNvNtNtNtCscvED46PD3Z7_15indexer_service6domain6models7indexers1_1__NtB8_11IndexerTypeNtNtCseK5fOxzA7Ha_5serde2de11Deserialize11deserializeNtB3_14___FieldVisitorNtB1v_7Visitor9visit_u64pEBe_
FN:34,_RNvXsi_NtNtNtCscvED46PD3Z7_15indexer_service6domain6models7indexerNtB5_12IndexerModelNtNtCs7uf0n3bS6vX_4core3fmt5Debug3fmt
FN:17,_RNvXs6_NtNtNtCscvED46PD3Z7_15indexer_service6domain6models7indexerNtB5_13IndexerStatusINtNtCs7uf0n3bS6vX_4core7convert7TryFromReE8try_from
FN:17,_RNvXs1_NtNtNtCscvED46PD3Z7_15indexer_service6domain6models7indexerNtB5_13IndexerStatusNtNtCs7uf0n3bS6vX_4core7default7Default7default
FN:34,_RNvXsk_NtNtNtCscvED46PD3Z7_15indexer_service6domain6models7indexerNtB5_12IndexerModelNtNtCs7uf0n3bS6vX_4core3cmp9PartialEq2eq
FN:17,_RNvXs0_NvXNvNtNtNtCscvED46PD3Z7_15indexer_service6domain6models7indexers_1__NtBa_13IndexerStatusNtNtCseK5fOxzA7Ha_5serde2de11Deserialize11deserializeNtB5_9___VisitorNtB1y_7Visitor9expecting
FN:27,_RNvXNvXNvNtNtNtCscvED46PD3Z7_15indexer_service6domain6models7indexers1_1__NtB7_11IndexerTypeNtNtCseK5fOxzA7Ha_5serde2de11Deserialize11deserializeNtB2_14___FieldVisitorNtB1u_7Visitor9expecting
FN:27,_RNvXsf_NtNtNtCscvED46PD3Z7_15indexer_service6domain6models7indexerNtB5_11IndexerTypeNtNtCs7uf0n3bS6vX_4core3fmt7Display3fmt
FN:34,_RNvXs0_NvXNvNtNtNtCscvED46PD3Z7_15indexer_service6domain6models7indexers3_1__NtBa_12IndexerModelNtNtCseK5fOxzA7Ha_5serde2de11Deserialize11deserializeNtB5_9___VisitorNtB1y_7Visitor9expecting
FN:17,_RNvXs5_NtNtNtCscvED46PD3Z7_15indexer_service6domain6models7indexerNtB5_13IndexerStatusNtNtNtCs7uf0n3bS6vX_4core3str6traits7FromStr8from_str
FN:34,_RINvXNvXNvNtNtNtCscvED46PD3Z7_15indexer_service6domain6models7indexers3_1__NtB8_12IndexerModelNtNtCseK5fOxzA7Ha_5serde2de11Deserialize11deserializeNtB3_14___FieldVisitorNtB1w_7Visitor9visit_strNtNtCsh37VWHmGiB8_10serde_json5error5ErrorEBe_
FN:17,_RNvXs7_NtNtNtCscvED46PD3Z7_15indexer_service6domain6models7indexerNtB5_13IndexerStatusNtNtCs7uf0n3bS6vX_4core3fmt7Display3fmt
FN:89,_RNvXs_NtNtNtCscvED46PD3Z7_15indexer_service6domain6models7indexerNtB4_12IndexerErrorNtNtNtCs25zxz7FrUeM_9axum_core8response13into_response12IntoResponse13into_response
FN:17,_RINvXs0_NvXNvNtNtNtCscvED46PD3Z7_15indexer_service6domain6models7indexers_1__NtBb_13IndexerStatusNtNtCseK5fOxzA7Ha_5serde2de11Deserialize11deserializeNtB6_9___VisitorNtB1z_7Visitor10visit_enumINtNtCsh37VWHmGiB8_10serde_json2de13VariantAccessNtNtB39_4read9SliceReadEEBh_
FN:83,_RNvXNtNtNtCscvED46PD3Z7_15indexer_service6domain6models7indexerNtB2_12IndexerErrorINtNtCs7uf0n3bS6vX_4core7convert4FromNtNtCs3fArEdILhLk_6diesel6result5ErrorE4from
FN:17,_RINvXNvNtNtNtCscvED46PD3Z7_15indexer_service6domain6models7indexers_1__NtB5_13IndexerStatusNtNtCseK5fOxzA7Ha_5serde2de11Deserialize11deserializeQINtNtCsh37VWHmGiB8_10serde_json2de12DeserializerNtNtB2o_4read9SliceReadEEBb_
FN:44,_RNvXsn_NtNtNtCscvED46PD3Z7_15indexer_service6domain6models7indexerNtB5_12IndexerErrorNtNtCs7uf0n3bS6vX_4core3fmt7Display3fmt
FN:27,_RINvXs0_NvXNvNtNtNtCscvED46PD3Z7_15indexer_service6domain6models7indexers1_1__NtBb_11IndexerTypeNtNtCseK5fOxzA7Ha_5serde2de11Deserialize11deserializeNtB6_9___VisitorNtB1y_7Visitor10visit_enumINtNtCsh37VWHmGiB8_10serde_json2de17UnitVariantAccessNtNtB38_4read9SliceReadEEBh_
FN:27,_RINvXNvNtNtNtCscvED46PD3Z7_15indexer_service6domain6models7indexers1_1__NtB5_11IndexerTypeNtNtCseK5fOxzA7Ha_5serde2de11Deserialize11deserializeQINtNtCsh37VWHmGiB8_10serde_json2de12DeserializerNtNtB2n_4read9SliceReadEEBb_
FN:17,_RINvXNvXNvNtNtNtCscvED46PD3Z7_15indexer_service6domain6models7indexers_1__NtB8_13IndexerStatusNtNtCseK5fOxzA7Ha_5serde2de11Deserialize11deserializeNtB3_14___FieldVisitorNtB1w_7Visitor9visit_strNtNtCsh37VWHmGiB8_10serde_json5error5ErrorEBe_
FN:34,_RINvXNvNtNtNtCscvED46PD3Z7_15indexer_service6domain6models7indexers2_1__NtB5_12IndexerModelNtNtCseK5fOxzA7Ha_5serde3ser9Serialize9serializeQINtNtCsh37VWHmGiB8_10serde_json3ser10SerializerQINtNtNtCsNPb6UTPMuv_5bytes3buf6writer6WriterNtNtB37_9bytes_mut8BytesMutEEEBb_
FN:27,_RNvXs9_NtNtNtCscvED46PD3Z7_15indexer_service6domain6models7indexerNtB5_11IndexerTypeNtNtCs7uf0n3bS6vX_4core7default7Default7default
FN:17,_RNvXNvXNvNtNtNtCscvED46PD3Z7_15indexer_service6domain6models7indexers_1__NtB7_13IndexerStatusNtNtCseK5fOxzA7Ha_5serde2de11Deserialize11deserializeNtB2_14___FieldVisitorNtB1v_7Visitor9expecting
FN:90,_RNCNvXs_NtNtNtCscvED46PD3Z7_15indexer_service6domain6models7indexerNtB6_12IndexerErrorNtNtNtCs25zxz7FrUeM_9axum_core8response13into_response12IntoResponse13into_response0Bc_
FN:27,_RINvXNvNtNtNtCscvED46PD3Z7_15indexer_service6domain6models7indexers0_1__NtB5_11IndexerTypeNtNtCseK5fOxzA7Ha_5serde3ser9Serialize9serializeINtNtCsh37VWHmGiB8_10serde_json3ser18RawValueStrEmitterQINtNtNtCsNPb6UTPMuv_5bytes3buf6writer6WriterNtNtB3d_9bytes_mut8BytesMutENtB2f_16CompactFormatterEEBb_
FN:27,_RNvXsd_NtNtNtCscvED46PD3Z7_15indexer_service6domain6models7indexerNtB5_11IndexerTypeNtNtNtCs7uf0n3bS6vX_4core3str6traits7FromStr8from_str
FN:17,_RINvXNvNtNtNtCscvED46PD3Z7_15indexer_service6domain6models7indexer1__NtB5_13IndexerStatusNtNtCseK5fOxzA7Ha_5serde3ser9Serialize9serializeQINtNtCsh37VWHmGiB8_10serde_json3ser10SerializerQINtNtNtCsNPb6UTPMuv_5bytes3buf6writer6WriterNtNtB35_9bytes_mut8BytesMutEEEBb_
FN:17,_RINvXs0_NvXNvNtNtNtCscvED46PD3Z7_15indexer_service6domain6models7indexers_1__NtBb_13IndexerStatusNtNtCseK5fOxzA7Ha_5serde2de11Deserialize11deserializeNtB6_9___VisitorNtB1z_7Visitor10visit_enumINtNtCsh37VWHmGiB8_10serde_json2de17UnitVariantAccessNtNtB39_4read9SliceReadEEBh_
FN:27,_RINvXNvNtNtNtCscvED46PD3Z7_15indexer_service6domain6models7indexers0_1__NtB5_11IndexerTypeNtNtCseK5fOxzA7Ha_5serde3ser9Serialize9serializeQINtNtCsh37VWHmGiB8_10serde_json3ser10SerializerQINtNtNtCsNPb6UTPMuv_5bytes3buf6writer6WriterNtNtB36_9bytes_mut8BytesMutEEEBb_
FN:44,_RNvXsl_NtNtNtCscvED46PD3Z7_15indexer_service6domain6models7indexerNtB5_12IndexerErrorNtNtCs7uf0n3bS6vX_4core3fmt5Debug3fmt
FN:17,_RINvXNvNtNtNtCscvED46PD3Z7_15indexer_service6domain6models7indexer1__NtB5_13IndexerStatusNtNtCseK5fOxzA7Ha_5serde3ser9Serialize9serializeINtNtCsh37VWHmGiB8_10serde_json3ser18RawValueStrEmitterQINtNtNtCsNPb6UTPMuv_5bytes3buf6writer6WriterNtNtB3c_9bytes_mut8BytesMutENtB2e_16CompactFormatterEEBb_
FN:17,_RNvXs2_NtNtNtCscvED46PD3Z7_15indexer_service6domain6models7indexerNtB5_13IndexerStatusNtNtCs7uf0n3bS6vX_4core3fmt5Debug3fmt
FN:34,_RINvXNvNtNtNtCscvED46PD3Z7_15indexer_service6domain6models7indexers3_1__NtB5_12IndexerModelNtNtCseK5fOxzA7Ha_5serde2de11Deserialize11deserializeQINtNtCsh37VWHmGiB8_10serde_json2de12DeserializerNtNtB2o_4read9SliceReadEEBb_
FN:27,_RNvXsa_NtNtNtCscvED46PD3Z7_15indexer_service6domain6models7indexerNtB5_11IndexerTypeNtNtCs7uf0n3bS6vX_4core3fmt5Debug3fmt
FN:27,_RINvXs0_NvXNvNtNtNtCscvED46PD3Z7_15indexer_service6domain6models7indexers1_1__NtBb_11IndexerTypeNtNtCseK5fOxzA7Ha_5serde2de11Deserialize11deserializeNtB6_9___VisitorNtB1y_7Visitor10visit_enumINtNtCsh37VWHmGiB8_10serde_json2de13VariantAccessNtNtB38_4read9SliceReadEEBh_
FN:27,_RINvXNvXNvNtNtNtCscvED46PD3Z7_15indexer_service6domain6models7indexers1_1__NtB8_11IndexerTypeNtNtCseK5fOxzA7Ha_5serde2de11Deserialize11deserializeNtB3_14___FieldVisitorNtB1v_7Visitor9visit_strNtNtCsh37VWHmGiB8_10serde_json5error5ErrorEBe_
FNDA:6,_RINvXs_NvXNvNtNtNtCscvED46PD3Z7_15indexer_service6domain6models7indexers1_1__NtBa_11IndexerTypeNtNtCseK5fOxzA7Ha_5serde2de11Deserialize11deserializeNtB5_7___FieldB1v_11deserializeQINtNtCsh37VWHmGiB8_10serde_json2de12DeserializerNtNtB2X_4read9SliceReadEEBg_
FNDA:6,_RINvXs_NvXNvNtNtNtCscvED46PD3Z7_15indexer_service6domain6models7indexers_1__NtBa_13IndexerStatusNtNtCseK5fOxzA7Ha_5serde2de11Deserialize11deserializeNtB5_7___FieldB1w_11deserializeQINtNtCsh37VWHmGiB8_10serde_json2de12DeserializerNtNtB2Y_4read9SliceReadEEBg_
FNDA:0,_RINvXs0_NvXNvNtNtNtCscvED46PD3Z7_15indexer_service6domain6models7indexers3_1__NtBb_12IndexerModelNtNtCseK5fOxzA7Ha_5serde2de11Deserialize11deserializeNtB6_9___VisitorNtB1z_7Visitor9visit_seqINtNtCsh37VWHmGiB8_10serde_json2de9SeqAccessNtNtB37_4read9SliceReadEEBh_
FNDA:6,_RINvXs0_NvXNvNtNtNtCscvED46PD3Z7_15indexer_service6domain6models7indexers3_1__NtBb_12IndexerModelNtNtCseK5fOxzA7Ha_5serde2de11Deserialize11deserializeNtB6_9___VisitorNtB1z_7Visitor9visit_mapINtNtCsh37VWHmGiB8_10serde_json2de9MapAccessNtNtB37_4read9SliceReadEEBh_
FNDA:0,_RINvXNvNtNtNtCscvED46PD3Z7_15indexer_service6domain6models7indexers_1__NtB5_13IndexerStatusNtNtCseK5fOxzA7Ha_5serde2de11Deserialize11deserializeINtNvNtNtB1v_9___private2de13missing_field24MissingFieldDeserializerNtNtCsh37VWHmGiB8_10serde_json5error5ErrorEEBb_
FNDA:36,_RINvXs_NvXNvNtNtNtCscvED46PD3Z7_15indexer_service6domain6models7indexers3_1__NtBa_12IndexerModelNtNtCseK5fOxzA7Ha_5serde2de11Deserialize11deserializeNtB5_7___FieldB1w_11deserializeINtNtCsh37VWHmGiB8_10serde_json2de6MapKeyNtNtB2X_4read9SliceReadEEBg_
FNDA:0,_RINvXNvNtNtNtCscvED46PD3Z7_15indexer_service6domain6models7indexers1_1__NtB5_11IndexerTypeNtNtCseK5fOxzA7Ha_5serde2de11Deserialize11deserializeINtNvNtNtB1u_9___private2de13missing_field24MissingFieldDeserializerNtNtCsh37VWHmGiB8_10serde_json5error5ErrorEEBb_
FNDA:12,_RNvXsc_NtNtNtCscvED46PD3Z7_15indexer_service6domain6models7indexerNtB5_11IndexerTypeNtNtCs7uf0n3bS6vX_4core3cmp9PartialEq2eq
FNDA:0,_RNvXs0_NtNtNtCscvED46PD3Z7_15indexer_service6domain6models7indexerNtB5_13IndexerStatusNtNtCs7uf0n3bS6vX_4core5clone5Clone5clone
FNDA:0,_RNvXs8_NtNtNtCscvED46PD3Z7_15indexer_service6domain6models7indexerNtB5_11IndexerTypeNtNtCs7uf0n3bS6vX_4core5clone5Clone5clone
FNDA:0,_RNvXsg_NtNtNtCscvED46PD3Z7_15indexer_service6domain6models7indexerNtB5_12IndexerModelNtNtCs7uf0n3bS6vX_4core5clone5Clone5clone
FNDA:18,_RNvXs4_NtNtNtCscvED46PD3Z7_15indexer_service6domain6models7indexerNtB5_13IndexerStatusNtNtCs7uf0n3bS6vX_4core3cmp9PartialEq2eq
FNDA:0,_RINvXNvXNvNtNtNtCscvED46PD3Z7_15indexer_service6domain6models7indexers3_1__NtB8_12IndexerModelNtNtCseK5fOxzA7Ha_5serde2de11Deserialize11deserializeNtB3_14___FieldVisitorNtB1w_7Visitor11visit_bytespEBe_
FNDA:0,_RNvXNvXNvNtNtNtCscvED46PD3Z7_15indexer_service6domain6models7indexers3_1__NtB7_12IndexerModelNtNtCseK5fOxzA7Ha_5serde2de11Deserialize11deserializeNtB2_14___FieldVisitorNtB1v_7Visitor9expecting
FNDA:0,_RINvXNvXNvNtNtNtCscvED46PD3Z7_15indexer_service6domain6models7indexers1_1__NtB8_11IndexerTypeNtNtCseK5fOxzA7Ha_5serde2de11Deserialize11deserializeNtB3_14___FieldVisitorNtB1v_7Visitor11visit_bytespEBe_
FNDA:0,_RINvXNvXNvNtNtNtCscvED46PD3Z7_15indexer_service6domain6models7indexers_1__NtB8_13IndexerStatusNtNtCseK5fOxzA7Ha_5serde2de11Deserialize11deserializeNtB3_14___FieldVisitorNtB1w_7Visitor11visit_bytespEBe_
FNDA:0,_RNvXsh_NtNtNtCscvED46PD3Z7_15indexer_service6domain6models7indexerNtB5_12IndexerModelNtNtCs7uf0n3bS6vX_4core7default7Default7default
FNDA:0,_RNvXse_NtNtNtCscvED46PD3Z7_15indexer_service6domain6models7indexerNtB5_11IndexerTypeINtNtCs7uf0n3bS6vX_4core7convert7TryFromReE8try_from
FNDA:0,_RINvXNvXNvNtNtNtCscvED46PD3Z7_15indexer_service6domain6models7indexers_1__NtB8_13IndexerStatusNtNtCseK5fOxzA7Ha_5serde2de11Deserialize11deserializeNtB3_14___FieldVisitorNtB1w_7Visitor9visit_u64pEBe_
FNDA:0,_RINvXNvXNvNtNtNtCscvED46PD3Z7_15indexer_service6domain6models7indexers3_1__NtB8_12IndexerModelNtNtCseK5fOxzA7Ha_5serde2de11Deserialize11deserializeNtB3_14___FieldVisitorNtB1w_7Visitor9visit_u64pEBe_
FNDA:0,_RNvXs0_NvXNvNtNtNtCscvED46PD3Z7_15indexer_service6domain6models7indexers1_1__NtBa_11IndexerTypeNtNtCseK5fOxzA7Ha_5serde2de11Deserialize11deserializeNtB5_9___VisitorNtB1x_7Visitor9expecting
FNDA:0,_RINvXNvXNvNtNtNtCscvED46PD3Z7_15indexer_service6domain6models7indexers1_1__NtB8_11IndexerTypeNtNtCseK5fOxzA7Ha_5serde2de11Deserialize11deserializeNtB3_14___FieldVisitorNtB1v_7Visitor9visit_u64pEBe_
FNDA:0,_RNvXsi_NtNtNtCscvED46PD3Z7_15indexer_service6domain6models7indexerNtB5_12IndexerModelNtNtCs7uf0n3bS6vX_4core3fmt5Debug3fmt
FNDA:0,_RNvXs6_NtNtNtCscvED46PD3Z7_15indexer_service6domain6models7indexerNtB5_13IndexerStatusINtNtCs7uf0n3bS6vX_4core7convert7TryFromReE8try_from
FNDA:0,_RNvXs1_NtNtNtCscvED46PD3Z7_15indexer_service6domain6models7indexerNtB5_13IndexerStatusNtNtCs7uf0n3bS6vX_4core7default7Default7default
FNDA:0,_RNvXsk_NtNtNtCscvED46PD3Z7_15indexer_service6domain6models7indexerNtB5_12IndexerModelNtNtCs7uf0n3bS6vX_4core3cmp9PartialEq2eq
FNDA:0,_RNvXs0_NvXNvNtNtNtCscvED46PD3Z7_15indexer_service6domain6models7indexers_1__NtBa_13IndexerStatusNtNtCseK5fOxzA7Ha_5serde2de11Deserialize11deserializeNtB5_9___VisitorNtB1y_7Visitor9expecting
FNDA:0,_RNvXNvXNvNtNtNtCscvED46PD3Z7_15indexer_service6domain6models7indexers1_1__NtB7_11IndexerTypeNtNtCseK5fOxzA7Ha_5serde2de11Deserialize11deserializeNtB2_14___FieldVisitorNtB1u_7Visitor9expecting
FNDA:12,_RNvXsf_NtNtNtCscvED46PD3Z7_15indexer_service6domain6models7indexerNtB5_11IndexerTypeNtNtCs7uf0n3bS6vX_4core3fmt7Display3fmt
FNDA:0,_RNvXs0_NvXNvNtNtNtCscvED46PD3Z7_15indexer_service6domain6models7indexers3_1__NtBa_12IndexerModelNtNtCseK5fOxzA7Ha_5serde2de11Deserialize11deserializeNtB5_9___VisitorNtB1y_7Visitor9expecting
FNDA:61,_RNvXs5_NtNtNtCscvED46PD3Z7_15indexer_service6domain6models7indexerNtB5_13IndexerStatusNtNtNtCs7uf0n3bS6vX_4core3str6traits7FromStr8from_str
FNDA:36,_RINvXNvXNvNtNtNtCscvED46PD3Z7_15indexer_service6domain6models7indexers3_1__NtB8_12IndexerModelNtNtCseK5fOxzA7Ha_5serde2de11Deserialize11deserializeNtB3_14___FieldVisitorNtB1w_7Visitor9visit_strNtNtCsh37VWHmGiB8_10serde_json5error5ErrorEBe_
FNDA:13,_RNvXs7_NtNtNtCscvED46PD3Z7_15indexer_service6domain6models7indexerNtB5_13IndexerStatusNtNtCs7uf0n3bS6vX_4core3fmt7Display3fmt
FNDA:3,_RNvXs_NtNtNtCscvED46PD3Z7_15indexer_service6domain6models7indexerNtB4_12IndexerErrorNtNtNtCs25zxz7FrUeM_9axum_core8response13into_response12IntoResponse13into_response
FNDA:0,_RINvXs0_NvXNvNtNtNtCscvED46PD3Z7_15indexer_service6domain6models7indexers_1__NtBb_13IndexerStatusNtNtCseK5fOxzA7Ha_5serde2de11Deserialize11deserializeNtB6_9___VisitorNtB1z_7Visitor10visit_enumINtNtCsh37VWHmGiB8_10serde_json2de13VariantAccessNtNtB39_4read9SliceReadEEBh_
FNDA:0,_RNvXNtNtNtCscvED46PD3Z7_15indexer_service6domain6models7indexerNtB2_12IndexerErrorINtNtCs7uf0n3bS6vX_4core7convert4FromNtNtCs3fArEdILhLk_6diesel6result5ErrorE4from
FNDA:6,_RINvXNvNtNtNtCscvED46PD3Z7_15indexer_service6domain6models7indexers_1__NtB5_13IndexerStatusNtNtCseK5fOxzA7Ha_5serde2de11Deserialize11deserializeQINtNtCsh37VWHmGiB8_10serde_json2de12DeserializerNtNtB2o_4read9SliceReadEEBb_
FNDA:0,_RNvXsn_NtNtNtCscvED46PD3Z7_15indexer_service6domain6models7indexerNtB5_12IndexerErrorNtNtCs7uf0n3bS6vX_4core3fmt7Display3fmt
FNDA:6,_RINvXs0_NvXNvNtNtNtCscvED46PD3Z7_15indexer_service6domain6models7indexers1_1__NtBb_11IndexerTypeNtNtCseK5fOxzA7Ha_5serde2de11Deserialize11deserializeNtB6_9___VisitorNtB1y_7Visitor10visit_enumINtNtCsh37VWHmGiB8_10serde_json2de17UnitVariantAccessNtNtB38_4read9SliceReadEEBh_
FNDA:6,_RINvXNvNtNtNtCscvED46PD3Z7_15indexer_service6domain6models7indexers1_1__NtB5_11IndexerTypeNtNtCseK5fOxzA7Ha_5serde2de11Deserialize11deserializeQINtNtCsh37VWHmGiB8_10serde_json2de12DeserializerNtNtB2n_4read9SliceReadEEBb_
FNDA:6,_RINvXNvXNvNtNtNtCscvED46PD3Z7_15indexer_service6domain6models7indexers_1__NtB8_13IndexerStatusNtNtCseK5fOxzA7Ha_5serde2de11Deserialize11deserializeNtB3_14___FieldVisitorNtB1w_7Visitor9visit_strNtNtCsh37VWHmGiB8_10serde_json5error5ErrorEBe_
FNDA:6,_RINvXNvNtNtNtCscvED46PD3Z7_15indexer_service6domain6models7indexers2_1__NtB5_12IndexerModelNtNtCseK5fOxzA7Ha_5serde3ser9Serialize9serializeQINtNtCsh37VWHmGiB8_10serde_json3ser10SerializerQINtNtNtCsNPb6UTPMuv_5bytes3buf6writer6WriterNtNtB37_9bytes_mut8BytesMutEEEBb_
FNDA:9,_RNvXs9_NtNtNtCscvED46PD3Z7_15indexer_service6domain6models7indexerNtB5_11IndexerTypeNtNtCs7uf0n3bS6vX_4core7default7Default7default
FNDA:0,_RNvXNvXNvNtNtNtCscvED46PD3Z7_15indexer_service6domain6models7indexers_1__NtB7_13IndexerStatusNtNtCseK5fOxzA7Ha_5serde2de11Deserialize11deserializeNtB2_14___FieldVisitorNtB1v_7Visitor9expecting
FNDA:0,_RNCNvXs_NtNtNtCscvED46PD3Z7_15indexer_service6domain6models7indexerNtB6_12IndexerErrorNtNtNtCs25zxz7FrUeM_9axum_core8response13into_response12IntoResponse13into_response0Bc_
FNDA:0,_RINvXNvNtNtNtCscvED46PD3Z7_15indexer_service6domain6models7indexers0_1__NtB5_11IndexerTypeNtNtCseK5fOxzA7Ha_5serde3ser9Serialize9serializeINtNtCsh37VWHmGiB8_10serde_json3ser18RawValueStrEmitterQINtNtNtCsNPb6UTPMuv_5bytes3buf6writer6WriterNtNtB3d_9bytes_mut8BytesMutENtB2f_16CompactFormatterEEBb_
FNDA:73,_RNvXsd_NtNtNtCscvED46PD3Z7_15indexer_service6domain6models7indexerNtB5_11IndexerTypeNtNtNtCs7uf0n3bS6vX_4core3str6traits7FromStr8from_str
FNDA:6,_RINvXNvNtNtNtCscvED46PD3Z7_15indexer_service6domain6models7indexer1__NtB5_13IndexerStatusNtNtCseK5fOxzA7Ha_5serde3ser9Serialize9serializeQINtNtCsh37VWHmGiB8_10serde_json3ser10SerializerQINtNtNtCsNPb6UTPMuv_5bytes3buf6writer6WriterNtNtB35_9bytes_mut8BytesMutEEEBb_
FNDA:6,_RINvXs0_NvXNvNtNtNtCscvED46PD3Z7_15indexer_service6domain6models7indexers_1__NtBb_13IndexerStatusNtNtCseK5fOxzA7Ha_5serde2de11Deserialize11deserializeNtB6_9___VisitorNtB1z_7Visitor10visit_enumINtNtCsh37VWHmGiB8_10serde_json2de17UnitVariantAccessNtNtB39_4read9SliceReadEEBh_
FNDA:6,_RINvXNvNtNtNtCscvED46PD3Z7_15indexer_service6domain6models7indexers0_1__NtB5_11IndexerTypeNtNtCseK5fOxzA7Ha_5serde3ser9Serialize9serializeQINtNtCsh37VWHmGiB8_10serde_json3ser10SerializerQINtNtNtCsNPb6UTPMuv_5bytes3buf6writer6WriterNtNtB36_9bytes_mut8BytesMutEEEBb_
FNDA:0,_RNvXsl_NtNtNtCscvED46PD3Z7_15indexer_service6domain6models7indexerNtB5_12IndexerErrorNtNtCs7uf0n3bS6vX_4core3fmt5Debug3fmt
FNDA:0,_RINvXNvNtNtNtCscvED46PD3Z7_15indexer_service6domain6models7indexer1__NtB5_13IndexerStatusNtNtCseK5fOxzA7Ha_5serde3ser9Serialize9serializeINtNtCsh37VWHmGiB8_10serde_json3ser18RawValueStrEmitterQINtNtNtCsNPb6UTPMuv_5bytes3buf6writer6WriterNtNtB3c_9bytes_mut8BytesMutENtB2e_16CompactFormatterEEBb_
FNDA:0,_RNvXs2_NtNtNtCscvED46PD3Z7_15indexer_service6domain6models7indexerNtB5_13IndexerStatusNtNtCs7uf0n3bS6vX_4core3fmt5Debug3fmt
FNDA:6,_RINvXNvNtNtNtCscvED46PD3Z7_15indexer_service6domain6models7indexers3_1__NtB5_12IndexerModelNtNtCseK5fOxzA7Ha_5serde2de11Deserialize11deserializeQINtNtCsh37VWHmGiB8_10serde_json2de12DeserializerNtNtB2o_4read9SliceReadEEBb_
FNDA:0,_RNvXsa_NtNtNtCscvED46PD3Z7_15indexer_service6domain6models7indexerNtB5_11IndexerTypeNtNtCs7uf0n3bS6vX_4core3fmt5Debug3fmt
FNDA:0,_RINvXs0_NvXNvNtNtNtCscvED46PD3Z7_15indexer_service6domain6models7indexers1_1__NtBb_11IndexerTypeNtNtCseK5fOxzA7Ha_5serde2de11Deserialize11deserializeNtB6_9___VisitorNtB1y_7Visitor10visit_enumINtNtCsh37VWHmGiB8_10serde_json2de13VariantAccessNtNtB38_4read9SliceReadEEBh_
FNDA:6,_RINvXNvXNvNtNtNtCscvED46PD3Z7_15indexer_service6domain6models7indexers1_1__NtB8_11IndexerTypeNtNtCseK5fOxzA7Ha_5serde2de11Deserialize11deserializeNtB3_14___FieldVisitorNtB1v_7Visitor9visit_strNtNtCsh37VWHmGiB8_10serde_json5error5ErrorEBe_
FNF:27
FNH:14
DA:17,61
DA:27,73
DA:34,78
DA:44,3
DA:83,0
DA:84,0
DA:85,0
DA:89,3
DA:90,3
DA:91,3
DA:92,0
DA:93,0
DA:95,3
DA:97,3
DA:98,3
DA:99,3
DA:100,3
DA:101,3
DA:102,3
DA:103,3
DA:104,3
DA:105,3
DA:106,3
BRF:0
BRH:0
LF:44
LH:28
end_of_record
SF:/Users/apoorvsadana/Documents/GitHub/indexer-service/src/domain/models/types.rs
FN:4,_RINvXs_NvXNvNtNtNtCscvED46PD3Z7_15indexer_service6domain6models5typess_1__NtBa_17AxumErrorResponseNtNtCseK5fOxzA7Ha_5serde2de11Deserialize11deserializeNtB5_7___FieldB1y_11deserializeINtNtCsh37VWHmGiB8_10serde_json2de6MapKeyNtNtB2Z_4read9SliceReadEEBg_
FN:4,_RINvXs0_NvXNvNtNtNtCscvED46PD3Z7_15indexer_service6domain6models5typess_1__NtBb_17AxumErrorResponseNtNtCseK5fOxzA7Ha_5serde2de11Deserialize11deserializeNtB6_9___VisitorNtB1B_7Visitor9visit_seqINtNtCsh37VWHmGiB8_10serde_json2de9SeqAccessNtNtB39_4read9SliceReadEEBh_
FN:4,_RINvXs0_NvXNvNtNtNtCscvED46PD3Z7_15indexer_service6domain6models5typess_1__NtBb_17AxumErrorResponseNtNtCseK5fOxzA7Ha_5serde2de11Deserialize11deserializeNtB6_9___VisitorNtB1B_7Visitor9visit_mapINtNtCsh37VWHmGiB8_10serde_json2de9MapAccessNtNtB39_4read9SliceReadEEBh_
FN:4,_RNvXNvXNvNtNtNtCscvED46PD3Z7_15indexer_service6domain6models5typess_1__NtB7_17AxumErrorResponseNtNtCseK5fOxzA7Ha_5serde2de11Deserialize11deserializeNtB2_14___FieldVisitorNtB1x_7Visitor9expecting
FN:4,_RINvXNvXNvNtNtNtCscvED46PD3Z7_15indexer_service6domain6models5typess_1__NtB8_17AxumErrorResponseNtNtCseK5fOxzA7Ha_5serde2de11Deserialize11deserializeNtB3_14___FieldVisitorNtB1y_7Visitor11visit_bytespEBe_
FN:4,_RINvXNvXNvNtNtNtCscvED46PD3Z7_15indexer_service6domain6models5typess_1__NtB8_17AxumErrorResponseNtNtCseK5fOxzA7Ha_5serde2de11Deserialize11deserializeNtB3_14___FieldVisitorNtB1y_7Visitor9visit_u64pEBe_
FN:4,_RINvXNvXNvNtNtNtCscvED46PD3Z7_15indexer_service6domain6models5typess_1__NtB8_17AxumErrorResponseNtNtCseK5fOxzA7Ha_5serde2de11Deserialize11deserializeNtB3_14___FieldVisitorNtB1y_7Visitor9visit_strNtNtCsh37VWHmGiB8_10serde_json5error5ErrorEBe_
FN:4,_RINvXNvNtNtNtCscvED46PD3Z7_15indexer_service6domain6models5types1__NtB5_17AxumErrorResponseNtNtCseK5fOxzA7Ha_5serde3ser9Serialize9serializeQINtNtCsh37VWHmGiB8_10serde_json3ser10SerializerQINtNtNtCsNPb6UTPMuv_5bytes3buf6writer6WriterNtNtB37_9bytes_mut8BytesMutEEEBb_
FN:4,_RINvXNvNtNtNtCscvED46PD3Z7_15indexer_service6domain6models5typess_1__NtB5_17AxumErrorResponseNtNtCseK5fOxzA7Ha_5serde2de11Deserialize11deserializeQINtNtCsh37VWHmGiB8_10serde_json2de12DeserializerNtNtB2q_4read9SliceReadEEBb_
FN:4,_RNvXs0_NvXNvNtNtNtCscvED46PD3Z7_15indexer_service6domain6models5typess_1__NtBa_17AxumErrorResponseNtNtCseK5fOxzA7Ha_5serde2de11Deserialize11deserializeNtB5_9___VisitorNtB1A_7Visitor9expecting
FNDA:9,_RINvXs_NvXNvNtNtNtCscvED46PD3Z7_15indexer_service6domain6models5typess_1__NtBa_17AxumErrorResponseNtNtCseK5fOxzA7Ha_5serde2de11Deserialize11deserializeNtB5_7___FieldB1y_11deserializeINtNtCsh37VWHmGiB8_10serde_json2de6MapKeyNtNtB2Z_4read9SliceReadEEBg_
FNDA:0,_RINvXs0_NvXNvNtNtNtCscvED46PD3Z7_15indexer_service6domain6models5typess_1__NtBb_17AxumErrorResponseNtNtCseK5fOxzA7Ha_5serde2de11Deserialize11deserializeNtB6_9___VisitorNtB1B_7Visitor9visit_seqINtNtCsh37VWHmGiB8_10serde_json2de9SeqAccessNtNtB39_4read9SliceReadEEBh_
FNDA:3,_RINvXs0_NvXNvNtNtNtCscvED46PD3Z7_15indexer_service6domain6models5typess_1__NtBb_17AxumErrorResponseNtNtCseK5fOxzA7Ha_5serde2de11Deserialize11deserializeNtB6_9___VisitorNtB1B_7Visitor9visit_mapINtNtCsh37VWHmGiB8_10serde_json2de9MapAccessNtNtB39_4read9SliceReadEEBh_
FNDA:0,_RNvXNvXNvNtNtNtCscvED46PD3Z7_15indexer_service6domain6models5typess_1__NtB7_17AxumErrorResponseNtNtCseK5fOxzA7Ha_5serde2de11Deserialize11deserializeNtB2_14___FieldVisitorNtB1x_7Visitor9expecting
FNDA:0,_RINvXNvXNvNtNtNtCscvED46PD3Z7_15indexer_service6domain6models5typess_1__NtB8_17AxumErrorResponseNtNtCseK5fOxzA7Ha_5serde2de11Deserialize11deserializeNtB3_14___FieldVisitorNtB1y_7Visitor11visit_bytespEBe_
FNDA:0,_RINvXNvXNvNtNtNtCscvED46PD3Z7_15indexer_service6domain6models5typess_1__NtB8_17AxumErrorResponseNtNtCseK5fOxzA7Ha_5serde2de11Deserialize11deserializeNtB3_14___FieldVisitorNtB1y_7Visitor9visit_u64pEBe_
FNDA:9,_RINvXNvXNvNtNtNtCscvED46PD3Z7_15indexer_service6domain6models5typess_1__NtB8_17AxumErrorResponseNtNtCseK5fOxzA7Ha_5serde2de11Deserialize11deserializeNtB3_14___FieldVisitorNtB1y_7Visitor9visit_strNtNtCsh37VWHmGiB8_10serde_json5error5ErrorEBe_
FNDA:3,_RINvXNvNtNtNtCscvED46PD3Z7_15indexer_service6domain6models5types1__NtB5_17AxumErrorResponseNtNtCseK5fOxzA7Ha_5serde3ser9Serialize9serializeQINtNtCsh37VWHmGiB8_10serde_json3ser10SerializerQINtNtNtCsNPb6UTPMuv_5bytes3buf6writer6WriterNtNtB37_9bytes_mut8BytesMutEEEBb_
FNDA:3,_RINvXNvNtNtNtCscvED46PD3Z7_15indexer_service6domain6models5typess_1__NtB5_17AxumErrorResponseNtNtCseK5fOxzA7Ha_5serde2de11Deserialize11deserializeQINtNtCsh37VWHmGiB8_10serde_json2de12DeserializerNtNtB2q_4read9SliceReadEEBb_
FNDA:0,_RNvXs0_NvXNvNtNtNtCscvED46PD3Z7_15indexer_service6domain6models5typess_1__NtBa_17AxumErrorResponseNtNtCseK5fOxzA7Ha_5serde2de11Deserialize11deserializeNtB5_9___VisitorNtB1A_7Visitor9expecting
FNF:2
FNH:2
DA:4,21
BRF:0
BRH:0
LF:2
LH:2
end_of_record
SF:/Users/apoorvsadana/Documents/GitHub/indexer-service/src/errors.rs
FN:9,_RNvXs_NtCscvED46PD3Z7_15indexer_service6errorsNtB4_8AppErrorNtNtCs7uf0n3bS6vX_4core3fmt5Debug3fmt
FN:17,_RINvNtCscvED46PD3Z7_15indexer_service6errors14internal_errorpEB4_
FN:22,_RNvXNtCscvED46PD3Z7_15indexer_service6errorsNtB2_8AppErrorNtNtNtCs25zxz7FrUeM_9axum_core8response13into_response12IntoResponse13into_response
FNDA:0,_RNvXs_NtCscvED46PD3Z7_15indexer_service6errorsNtB4_8AppErrorNtNtCs7uf0n3bS6vX_4core3fmt5Debug3fmt
FNDA:0,_RINvNtCscvED46PD3Z7_15indexer_service6errors14internal_errorpEB4_
FNDA:0,_RNvXNtCscvED46PD3Z7_15indexer_service6errorsNtB2_8AppErrorNtNtNtCs25zxz7FrUeM_9axum_core8response13into_response12IntoResponse13into_response
FNF:3
FNH:0
DA:9,0
DA:17,0
DA:18,0
DA:19,0
DA:22,0
DA:23,0
DA:24,0
DA:25,0
DA:26,0
DA:27,0
DA:29,0
DA:30,0
BRF:0
BRH:0
LF:12
LH:0
end_of_record
SF:/Users/apoorvsadana/Documents/GitHub/indexer-service/src/handlers/global/health.rs
FN:7,_RNvNtNtNtCscvED46PD3Z7_15indexer_service8handlers6global6health12health_check
FN:7,_RNCNvNtNtNtCscvED46PD3Z7_15indexer_service8handlers6global6health12health_check0B9_
FNDA:1,_RNvNtNtNtCscvED46PD3Z7_15indexer_service8handlers6global6health12health_check
FNDA:1,_RNCNvNtNtNtCscvED46PD3Z7_15indexer_service8handlers6global6health12health_check0B9_
FNF:2
FNH:2
DA:7,1
DA:8,1
DA:9,1
BRF:0
BRH:0
LF:4
LH:4
end_of_record
SF:/Users/apoorvsadana/Documents/GitHub/indexer-service/src/handlers/indexers/create_indexer.rs
FN:81,_RNvNtNtNtCscvED46PD3Z7_15indexer_service8handlers8indexers14create_indexer14create_indexer
FN:30,_RNvMNtNtNtCscvED46PD3Z7_15indexer_service8handlers8indexers14create_indexerNtB2_20CreateIndexerRequest8is_ready
FN:70,_RNCNCNvNtNtNtCscvED46PD3Z7_15indexer_service8handlers8indexers14create_indexer28build_create_indexer_request00Bb_
FN:99,_RNCNCNvNtNtNtCscvED46PD3Z7_15indexer_service8handlers8indexers14create_indexer14create_indexer00Bb_
FN:51,_RNvNtNtNtCscvED46PD3Z7_15indexer_service8handlers8indexers14create_indexer28build_create_indexer_request
FN:100,_RNCNCNCNvNtNtNtCscvED46PD3Z7_15indexer_service8handlers8indexers14create_indexer14create_indexer000Bd_
FN:84,_RNCNvNtNtNtCscvED46PD3Z7_15indexer_service8handlers8indexers14create_indexer14create_indexer0B9_
FN:21,_RNvXs_NtNtNtCscvED46PD3Z7_15indexer_service8handlers8indexers14create_indexerNtB4_20CreateIndexerRequestNtNtCs7uf0n3bS6vX_4core7default7Default7default
FN:107,_RNCNCNCNCNvNtNtNtCscvED46PD3Z7_15indexer_service8handlers8indexers14create_indexer14create_indexer0000Bf_
FN:51,_RNCNvNtNtNtCscvED46PD3Z7_15indexer_service8handlers8indexers14create_indexer28build_create_indexer_request0B9_
FNDA:9,_RNvNtNtNtCscvED46PD3Z7_15indexer_service8handlers8indexers14create_indexer14create_indexer
FNDA:9,_RNvMNtNtNtCscvED46PD3Z7_15indexer_service8handlers8indexers14create_indexerNtB2_20CreateIndexerRequest8is_ready
FNDA:0,_RNCNCNvNtNtNtCscvED46PD3Z7_15indexer_service8handlers8indexers14create_indexer28build_create_indexer_request00Bb_
FNDA:6,_RNCNCNvNtNtNtCscvED46PD3Z7_15indexer_service8handlers8indexers14create_indexer14create_indexer00Bb_
FNDA:9,_RNvNtNtNtCscvED46PD3Z7_15indexer_service8handlers8indexers14create_indexer28build_create_indexer_request
FNDA:6,_RNCNCNCNvNtNtNtCscvED46PD3Z7_15indexer_service8handlers8indexers14create_indexer14create_indexer000Bd_
FNDA:9,_RNCNvNtNtNtCscvED46PD3Z7_15indexer_service8handlers8indexers14create_indexer14create_indexer0B9_
FNDA:9,_RNvXs_NtNtNtCscvED46PD3Z7_15indexer_service8handlers8indexers14create_indexerNtB4_20CreateIndexerRequestNtNtCs7uf0n3bS6vX_4core7default7Default7default
FNDA:0,_RNCNCNCNCNvNtNtNtCscvED46PD3Z7_15indexer_service8handlers8indexers14create_indexer14create_indexer0000Bf_
FNDA:9,_RNCNvNtNtNtCscvED46PD3Z7_15indexer_service8handlers8indexers14create_indexer28build_create_indexer_request0B9_
FNF:10
FNH:8
DA:21,9
DA:30,9
DA:31,9
DA:32,1
DA:33,8
DA:34,8
DA:36,2
DA:37,1
DA:38,1
DA:41,6
DA:42,1
DA:43,5
DA:46,6
DA:47,9
DA:51,9
DA:52,9
DA:53,33
DA:54,24
DA:55,24
DA:56,24
DA:57,31
DA:59,16
DA:60,6
DA:61,6
DA:63,10
DA:64,1
DA:65,1
DA:67,9
DA:68,9
DA:70,9
DA:72,0
DA:75,9
DA:76,3
DA:77,6
DA:78,6
DA:79,9
DA:81,9
DA:82,9
DA:83,9
DA:84,9
DA:85,9
DA:86,47
DA:87,6
DA:88,6
DA:89,6
DA:90,6
DA:91,6
DA:92,6
DA:93,6
DA:95,6
DA:97,24
DA:98,6
DA:99,6
DA:100,6
DA:101,6
DA:102,6
DA:103,6
DA:104,6
DA:105,12
DA:106,6
DA:107,6
DA:109,6
DA:110,6
DA:111,6
DA:112,6
DA:113,6
DA:114,6
DA:115,6
DA:116,30
DA:117,6
DA:119,6
DA:120,6
DA:121,6
DA:122,6
DA:123,54
DA:125,34
DA:127,6
DA:128,9
BRF:0
BRH:0
LF:86
LH:83
end_of_record
SF:/Users/apoorvsadana/Documents/GitHub/indexer-service/src/handlers/indexers/fail_indexer.rs
FN:7,_RNvNtNtNtCscvED46PD3Z7_15indexer_service8handlers8indexers12fail_indexer12fail_indexer
FN:8,_RNCNvNtNtNtCscvED46PD3Z7_15indexer_service8handlers8indexers12fail_indexer12fail_indexer0B9_
FNDA:1,_RNvNtNtNtCscvED46PD3Z7_15indexer_service8handlers8indexers12fail_indexer12fail_indexer
FNDA:1,_RNCNvNtNtNtCscvED46PD3Z7_15indexer_service8handlers8indexers12fail_indexer12fail_indexer0B9_
FNF:2
FNH:2
DA:7,1
DA:8,1
DA:9,1
DA:10,2
DA:11,1
DA:12,1
DA:13,0
DA:15,1
DA:16,1
DA:17,3
DA:18,1
DA:20,1
DA:21,1
BRF:0
BRH:0
LF:13
LH:12
end_of_record
SF:/Users/apoorvsadana/Documents/GitHub/indexer-service/src/handlers/indexers/get_indexer.rs
FN:10,_RNvNtNtNtCscvED46PD3Z7_15indexer_service8handlers8indexers11get_indexer11get_indexer
FN:13,_RNCNvNtNtNtCscvED46PD3Z7_15indexer_service8handlers8indexers11get_indexer11get_indexer0B9_
FNDA:0,_RNvNtNtNtCscvED46PD3Z7_15indexer_service8handlers8indexers11get_indexer11get_indexer
FNDA:0,_RNCNvNtNtNtCscvED46PD3Z7_15indexer_service8handlers8indexers11get_indexer11get_indexer0B9_
FNF:2
FNH:0
DA:10,0
DA:11,0
DA:12,0
DA:13,0
DA:14,0
DA:15,0
DA:17,0
DA:18,0
BRF:0
BRH:0
LF:9
LH:0
end_of_record
SF:/Users/apoorvsadana/Documents/GitHub/indexer-service/src/handlers/indexers/indexer_types/mod.rs
FN:181,_RNvNtNtNtCscvED46PD3Z7_15indexer_service8handlers8indexers13indexer_types19get_indexer_handler
FN:88,_RNCNCNvYNtNtNtNtNtCscvED46PD3Z7_15indexer_service8handlers8indexers13indexer_types7webhook14WebhookIndexerNtBa_7Indexer12start_commons_0s2_0Bg_
FN:65,_RNCNvYNtNtNtNtNtCscvED46PD3Z7_15indexer_service8handlers8indexers13indexer_types7webhook14WebhookIndexerNtB8_7Indexer12start_commons_0Be_
FN:70,_RNCNCNvYNtNtNtNtNtCscvED46PD3Z7_15indexer_service8handlers8indexers13indexer_types7webhook14WebhookIndexerNtBa_7Indexer12start_commons_0s_0Bg_
FN:96,_RNCNCNvYNtNtNtNtNtCscvED46PD3Z7_15indexer_service8handlers8indexers13indexer_types8postgres15PostgresIndexerNtBa_7Indexer12start_commons_0s3_0Bg_
FN:85,_RNCNCNvYNtNtNtNtNtCscvED46PD3Z7_15indexer_service8handlers8indexers13indexer_types7webhook14WebhookIndexerNtBa_7Indexer12start_commons_0s1_0Bg_
FN:88,_RNCNCNvYNtNtNtNtNtCscvED46PD3Z7_15indexer_service8handlers8indexers13indexer_types8postgres15PostgresIndexerNtBa_7Indexer12start_commons_0s2_0Bg_
FN:85,_RNCNCNvYNtNtNtNtNtCscvED46PD3Z7_15indexer_service8handlers8indexers13indexer_types8postgres15PostgresIndexerNtBa_7Indexer12start_commons_0s1_0Bg_
FN:77,_RNCNCNvYNtNtNtNtNtCscvED46PD3Z7_15indexer_service8handlers8indexers13indexer_types8postgres15PostgresIndexerNtBa_7Indexer12start_commons_0s0_0Bg_
FN:70,_RNCNCNvYNtNtNtNtNtCscvED46PD3Z7_15indexer_service8handlers8indexers13indexer_types8postgres15PostgresIndexerNtBa_7Indexer12start_commons_0s_0Bg_
FN:96,_RNCNCNvYNtNtNtNtNtCscvED46PD3Z7_15indexer_service8handlers8indexers13indexer_types7webhook14WebhookIndexerNtBa_7Indexer12start_commons_0s3_0Bg_
FN:65,_RNCNvYNtNtNtNtNtCscvED46PD3Z7_15indexer_service8handlers8indexers13indexer_types8postgres15PostgresIndexerNtB8_7Indexer12start_commons_0Be_
FN:77,_RNCNCNvYNtNtNtNtNtCscvED46PD3Z7_15indexer_service8handlers8indexers13indexer_types7webhook14WebhookIndexerNtBa_7Indexer12start_commons_0s0_0Bg_
FN:55,_RNCNvYNtNtNtNtNtCscvED46PD3Z7_15indexer_service8handlers8indexers13indexer_types8postgres15PostgresIndexerNtB8_7Indexer12start_common0Be_
FN:145,_RNCNvYNtNtNtNtNtCscvED46PD3Z7_15indexer_service8handlers8indexers13indexer_types8postgres15PostgresIndexerNtB8_7Indexer10is_running0Be_
FN:119,_RNvYNtNtNtNtNtCscvED46PD3Z7_15indexer_service8handlers8indexers13indexer_types8postgres15PostgresIndexerNtB6_7Indexer4stopBc_
FN:24,_RNvYNtNtNtNtNtCscvED46PD3Z7_15indexer_service8handlers8indexers13indexer_types8postgres15PostgresIndexerNtB6_7Indexer12start_commonBc_
FN:145,_RNvYNtNtNtNtNtCscvED46PD3Z7_15indexer_service8handlers8indexers13indexer_types8postgres15PostgresIndexerNtB6_7Indexer10is_runningBc_
FN:134,_RNCNCNvYNtNtNtNtNtCscvED46PD3Z7_15indexer_service8handlers8indexers13indexer_types8postgres15PostgresIndexerNtBa_7Indexer4stop00Bg_
FN:119,_RNCNvYNtNtNtNtNtCscvED46PD3Z7_15indexer_service8handlers8indexers13indexer_types8postgres15PostgresIndexerNtB8_7Indexer4stop0Be_
FN:200,_RNCNvNtNtNtNtCscvED46PD3Z7_15indexer_service8handlers8indexers13indexer_types5tests19start_indexer_retry0Bb_
FN:145,_RNvYNtNtNtNtNtCscvED46PD3Z7_15indexer_service8handlers8indexers13indexer_types7webhook14WebhookIndexerNtB6_7Indexer10is_runningBc_
FN:119,_RNvYNtNtNtNtNtCscvED46PD3Z7_15indexer_service8handlers8indexers13indexer_types7webhook14WebhookIndexerNtB6_7Indexer4stopBc_
FN:55,_RNCNvYNtNtNtNtNtCscvED46PD3Z7_15indexer_service8handlers8indexers13indexer_types7webhook14WebhookIndexerNtB8_7Indexer12start_common0Be_
FN:134,_RNCNCNvYNtNtNtNtNtCscvED46PD3Z7_15indexer_service8handlers8indexers13indexer_types7webhook14WebhookIndexerNtBa_7Indexer4stop00Bg_
FN:67,_RNCNCNvYNtNtNtNtNtCscvED46PD3Z7_15indexer_service8handlers8indexers13indexer_types7webhook14WebhookIndexerNtBa_7Indexer12start_commons_00Bg_
FN:119,_RNCNvYNtNtNtNtNtCscvED46PD3Z7_15indexer_service8handlers8indexers13indexer_types7webhook14WebhookIndexerNtB8_7Indexer4stop0Be_
FN:67,_RNCNCNvYNtNtNtNtNtCscvED46PD3Z7_15indexer_service8handlers8indexers13indexer_types8postgres15PostgresIndexerNtBa_7Indexer12start_commons_00Bg_
FN:145,_RNCNvYNtNtNtNtNtCscvED46PD3Z7_15indexer_service8handlers8indexers13indexer_types7webhook14WebhookIndexerNtB8_7Indexer10is_running0Be_
FN:24,_RNvYNtNtNtNtNtCscvED46PD3Z7_15indexer_service8handlers8indexers13indexer_types7webhook14WebhookIndexerNtB6_7Indexer12start_commonBc_
FN:201,_RNvNtNtNtNtCscvED46PD3Z7_15indexer_service8handlers8indexers13indexer_types5testss_19start_indexer_retry
FN:201,_RNCNvNtNtNtNtCscvED46PD3Z7_15indexer_service8handlers8indexers13indexer_types5testss_19start_indexer_retry0Bb_
FNDA:7,_RNvNtNtNtCscvED46PD3Z7_15indexer_service8handlers8indexers13indexer_types19get_indexer_handler
FNDA:0,_RNCNCNvYNtNtNtNtNtCscvED46PD3Z7_15indexer_service8handlers8indexers13indexer_types7webhook14WebhookIndexerNtBa_7Indexer12start_commons_0s2_0Bg_
FNDA:7,_RNCNvYNtNtNtNtNtCscvED46PD3Z7_15indexer_service8handlers8indexers13indexer_types7webhook14WebhookIndexerNtB8_7Indexer12start_commons_0Be_
FNDA:0,_RNCNCNvYNtNtNtNtNtCscvED46PD3Z7_15indexer_service8handlers8indexers13indexer_types7webhook14WebhookIndexerNtBa_7Indexer12start_commons_0s_0Bg_
FNDA:0,_RNCNCNvYNtNtNtNtNtCscvED46PD3Z7_15indexer_service8handlers8indexers13indexer_types8postgres15PostgresIndexerNtBa_7Indexer12start_commons_0s3_0Bg_
FNDA:0,_RNCNCNvYNtNtNtNtNtCscvED46PD3Z7_15indexer_service8handlers8indexers13indexer_types7webhook14WebhookIndexerNtBa_7Indexer12start_commons_0s1_0Bg_
FNDA:0,_RNCNCNvYNtNtNtNtNtCscvED46PD3Z7_15indexer_service8handlers8indexers13indexer_types8postgres15PostgresIndexerNtBa_7Indexer12start_commons_0s2_0Bg_
FNDA:0,_RNCNCNvYNtNtNtNtNtCscvED46PD3Z7_15indexer_service8handlers8indexers13indexer_types8postgres15PostgresIndexerNtBa_7Indexer12start_commons_0s1_0Bg_
FNDA:0,_RNCNCNvYNtNtNtNtNtCscvED46PD3Z7_15indexer_service8handlers8indexers13indexer_types8postgres15PostgresIndexerNtBa_7Indexer12start_commons_0s0_0Bg_
FNDA:0,_RNCNCNvYNtNtNtNtNtCscvED46PD3Z7_15indexer_service8handlers8indexers13indexer_types8postgres15PostgresIndexerNtBa_7Indexer12start_commons_0s_0Bg_
FNDA:0,_RNCNCNvYNtNtNtNtNtCscvED46PD3Z7_15indexer_service8handlers8indexers13indexer_types7webhook14WebhookIndexerNtBa_7Indexer12start_commons_0s3_0Bg_
FNDA:0,_RNCNvYNtNtNtNtNtCscvED46PD3Z7_15indexer_service8handlers8indexers13indexer_types8postgres15PostgresIndexerNtB8_7Indexer12start_commons_0Be_
FNDA:0,_RNCNCNvYNtNtNtNtNtCscvED46PD3Z7_15indexer_service8handlers8indexers13indexer_types7webhook14WebhookIndexerNtBa_7Indexer12start_commons_0s0_0Bg_
FNDA:0,_RNCNvYNtNtNtNtNtCscvED46PD3Z7_15indexer_service8handlers8indexers13indexer_types8postgres15PostgresIndexerNtB8_7Indexer12start_common0Be_
FNDA:0,_RNCNvYNtNtNtNtNtCscvED46PD3Z7_15indexer_service8handlers8indexers13indexer_types8postgres15PostgresIndexerNtB8_7Indexer10is_running0Be_
FNDA:0,_RNvYNtNtNtNtNtCscvED46PD3Z7_15indexer_service8handlers8indexers13indexer_types8postgres15PostgresIndexerNtB6_7Indexer4stopBc_
FNDA:0,_RNvYNtNtNtNtNtCscvED46PD3Z7_15indexer_service8handlers8indexers13indexer_types8postgres15PostgresIndexerNtB6_7Indexer12start_commonBc_
FNDA:0,_RNvYNtNtNtNtNtCscvED46PD3Z7_15indexer_service8handlers8indexers13indexer_types8postgres15PostgresIndexerNtB6_7Indexer10is_runningBc_
FNDA:0,_RNCNCNvYNtNtNtNtNtCscvED46PD3Z7_15indexer_service8handlers8indexers13indexer_types8postgres15PostgresIndexerNtBa_7Indexer4stop00Bg_
FNDA:0,_RNCNvYNtNtNtNtNtCscvED46PD3Z7_15indexer_service8handlers8indexers13indexer_types8postgres15PostgresIndexerNtB8_7Indexer4stop0Be_
FNDA:1,_RNCNvNtNtNtNtCscvED46PD3Z7_15indexer_service8handlers8indexers13indexer_types5tests19start_indexer_retry0Bb_
FNDA:0,_RNvYNtNtNtNtNtCscvED46PD3Z7_15indexer_service8handlers8indexers13indexer_types7webhook14WebhookIndexerNtB6_7Indexer10is_runningBc_
FNDA:2,_RNvYNtNtNtNtNtCscvED46PD3Z7_15indexer_service8handlers8indexers13indexer_types7webhook14WebhookIndexerNtB6_7Indexer4stopBc_
FNDA:0,_RNCNvYNtNtNtNtNtCscvED46PD3Z7_15indexer_service8handlers8indexers13indexer_types7webhook14WebhookIndexerNtB8_7Indexer12start_common0Be_
FNDA:0,_RNCNCNvYNtNtNtNtNtCscvED46PD3Z7_15indexer_service8handlers8indexers13indexer_types7webhook14WebhookIndexerNtBa_7Indexer4stop00Bg_
FNDA:87,_RNCNCNvYNtNtNtNtNtCscvED46PD3Z7_15indexer_service8handlers8indexers13indexer_types7webhook14WebhookIndexerNtBa_7Indexer12start_commons_00Bg_
FNDA:2,_RNCNvYNtNtNtNtNtCscvED46PD3Z7_15indexer_service8handlers8indexers13indexer_types7webhook14WebhookIndexerNtB8_7Indexer4stop0Be_
FNDA:0,_RNCNCNvYNtNtNtNtNtCscvED46PD3Z7_15indexer_service8handlers8indexers13indexer_types8postgres15PostgresIndexerNtBa_7Indexer12start_commons_00Bg_
FNDA:0,_RNCNvYNtNtNtNtNtCscvED46PD3Z7_15indexer_service8handlers8indexers13indexer_types7webhook14WebhookIndexerNtB8_7Indexer10is_running0Be_
FNDA:7,_RNvYNtNtNtNtNtCscvED46PD3Z7_15indexer_service8handlers8indexers13indexer_types7webhook14WebhookIndexerNtB6_7Indexer12start_commonBc_
FNDA:1,_RNvNtNtNtNtCscvED46PD3Z7_15indexer_service8handlers8indexers13indexer_types5testss_19start_indexer_retry
FNDA:1,_RNCNvNtNtNtNtCscvED46PD3Z7_15indexer_service8handlers8indexers13indexer_types5testss_19start_indexer_retry0Bb_
FNF:18
FNH:9
DA:24,7
DA:25,7
DA:26,7
DA:27,7
DA:28,7
DA:29,7
DA:30,7
DA:31,7
DA:32,7
DA:33,7
DA:34,7
DA:35,7
DA:36,7
DA:37,7
DA:38,7
DA:39,7
DA:40,7
DA:41,7
DA:42,7
DA:43,7
DA:44,7
DA:45,7
DA:46,7
DA:47,7
DA:48,7
DA:49,7
DA:50,7
DA:51,7
DA:52,7
DA:53,7
DA:54,7
DA:55,7
DA:57,7
DA:58,7
DA:59,7
DA:60,7
DA:61,7
DA:62,7
DA:63,7
DA:64,7
DA:65,7
DA:67,69
DA:68,16
DA:70,0
DA:75,46
DA:77,0
DA:82,6
DA:85,0
DA:88,0
DA:96,0
DA:113,7
DA:114,7
DA:115,7
DA:116,7
DA:119,2
DA:120,2
DA:121,2
DA:123,0
DA:126,2
DA:127,2
DA:128,2
DA:129,2
DA:130,2
DA:131,2
DA:132,2
DA:133,2
DA:134,2
DA:135,2
DA:136,2
DA:137,2
DA:138,2
DA:139,2
DA:140,2
DA:141,1
DA:142,1
DA:143,1
DA:144,4
DA:145,0
DA:146,0
DA:147,0
DA:149,0
DA:150,0
DA:151,0
DA:158,0
DA:159,0
DA:160,0
DA:161,0
DA:162,0
DA:163,0
DA:164,0
DA:165,0
DA:166,0
DA:167,0
DA:168,0
DA:169,0
DA:170,0
DA:171,0
DA:172,0
DA:173,0
DA:174,0
DA:175,0
DA:176,0
DA:177,0
DA:178,0
DA:181,7
DA:182,7
DA:183,7
DA:184,0
DA:186,7
DA:200,1
DA:201,1
DA:202,23
DA:203,1
DA:204,1
DA:205,1
DA:206,1
DA:207,1
DA:208,1
DA:209,1
DA:210,1
DA:211,1
DA:212,1
DA:213,1
DA:214,5
DA:215,5
DA:216,1
DA:217,1
DA:218,1
DA:219,1
DA:221,4
DA:223,3
DA:226,3
DA:229,3
DA:230,2
DA:231,2
DA:232,2
DA:233,2
DA:234,2
DA:235,10
DA:237,5
DA:240,3
BRF:0
BRH:0
LF:149
LH:112
end_of_record
SF:/Users/apoorvsadana/Documents/GitHub/indexer-service/src/handlers/indexers/indexer_types/postgres.rs
FN:11,_RNCNvXNtNtNtNtCscvED46PD3Z7_15indexer_service8handlers8indexers13indexer_types8postgresNtB4_15PostgresIndexerNtB6_7Indexer5start0Bc_
FN:11,_RNvXNtNtNtNtCscvED46PD3Z7_15indexer_service8handlers8indexers13indexer_types8postgresNtB2_15PostgresIndexerNtB4_7Indexer5start
FNDA:0,_RNCNvXNtNtNtNtCscvED46PD3Z7_15indexer_service8handlers8indexers13indexer_types8postgresNtB4_15PostgresIndexerNtB6_7Indexer5start0Bc_
FNDA:0,_RNvXNtNtNtNtCscvED46PD3Z7_15indexer_service8handlers8indexers13indexer_types8postgresNtB2_15PostgresIndexerNtB4_7Indexer5start
FNF:2
FNH:0
DA:11,0
DA:12,0
DA:13,0
DA:14,0
DA:15,0
DA:16,0
DA:17,0
DA:18,0
DA:19,0
DA:20,0
DA:21,0
DA:22,0
BRF:0
BRH:0
LF:13
LH:0
end_of_record
SF:/Users/apoorvsadana/Documents/GitHub/indexer-service/src/handlers/indexers/indexer_types/webhook.rs
FN:11,_RNCNvXNtNtNtNtCscvED46PD3Z7_15indexer_service8handlers8indexers13indexer_types7webhookNtB4_14WebhookIndexerNtB6_7Indexer5start0Bc_
FN:11,_RNvXNtNtNtNtCscvED46PD3Z7_15indexer_service8handlers8indexers13indexer_types7webhookNtB2_14WebhookIndexerNtB4_7Indexer5start
FNDA:7,_RNCNvXNtNtNtNtCscvED46PD3Z7_15indexer_service8handlers8indexers13indexer_types7webhookNtB4_14WebhookIndexerNtB6_7Indexer5start0Bc_
FNDA:7,_RNvXNtNtNtNtCscvED46PD3Z7_15indexer_service8handlers8indexers13indexer_types7webhookNtB2_14WebhookIndexerNtB4_7Indexer5start
FNF:2
FNH:2
DA:11,7
DA:12,7
DA:13,7
DA:14,7
DA:15,7
DA:16,7
DA:17,7
DA:18,7
DA:19,7
DA:20,14
BRF:0
BRH:0
LF:11
LH:11
end_of_record
SF:/Users/apoorvsadana/Documents/GitHub/indexer-service/src/handlers/indexers/start_indexer.rs
FN:20,_RNCNvNtNtNtCscvED46PD3Z7_15indexer_service8handlers8indexers13start_indexer13start_indexer0B9_
FN:69,_RNvNtNtNtCscvED46PD3Z7_15indexer_service8handlers8indexers13start_indexer17start_indexer_api
FN:19,_RNvNtNtNtCscvED46PD3Z7_15indexer_service8handlers8indexers13start_indexer13start_indexer
FN:34,_RNCNCNvNtNtNtCscvED46PD3Z7_15indexer_service8handlers8indexers13start_indexer13start_indexer00Bb_
FN:73,_RNCNvNtNtNtCscvED46PD3Z7_15indexer_service8handlers8indexers13start_indexer17start_indexer_api0B9_
FN:76,_RNvNtNtNtCscvED46PD3Z7_15indexer_service8handlers8indexers13start_indexer18start_all_indexers
FN:76,_RNCNvNtNtNtCscvED46PD3Z7_15indexer_service8handlers8indexers13start_indexer18start_all_indexers0B9_
FNDA:4,_RNCNvNtNtNtCscvED46PD3Z7_15indexer_service8handlers8indexers13start_indexer13start_indexer0B9_
FNDA:4,_RNvNtNtNtCscvED46PD3Z7_15indexer_service8handlers8indexers13start_indexer17start_indexer_api
FNDA:4,_RNvNtNtNtCscvED46PD3Z7_15indexer_service8handlers8indexers13start_indexer13start_indexer
FNDA:0,_RNCNCNvNtNtNtCscvED46PD3Z7_15indexer_service8handlers8indexers13start_indexer13start_indexer00Bb_
FNDA:4,_RNCNvNtNtNtCscvED46PD3Z7_15indexer_service8handlers8indexers13start_indexer17start_indexer_api0B9_
FNDA:0,_RNvNtNtNtCscvED46PD3Z7_15indexer_service8handlers8indexers13start_indexer18start_all_indexers
FNDA:0,_RNCNvNtNtNtCscvED46PD3Z7_15indexer_service8handlers8indexers13start_indexer18start_all_indexers0B9_
FNF:7
FNH:4
DA:19,4
DA:20,4
DA:21,4
DA:22,12
DA:23,4
DA:24,4
DA:25,4
DA:26,4
DA:27,0
DA:28,0
DA:33,0
DA:34,0
DA:35,0
DA:36,0
DA:38,0
DA:41,4
DA:42,4
DA:43,4
DA:44,4
DA:45,4
DA:46,4
DA:47,20
DA:48,4
DA:50,4
DA:52,4
DA:53,4
DA:55,4
DA:56,4
DA:57,4
DA:58,4
DA:59,4
DA:60,4
DA:61,4
DA:62,4
DA:63,12
DA:64,4
DA:66,4
DA:67,4
DA:69,4
DA:70,4
DA:71,4
DA:72,4
DA:73,48
DA:74,4
DA:76,0
DA:77,0
DA:78,0
DA:79,0
DA:80,0
DA:81,0
DA:82,0
DA:84,0
DA:89,0
DA:92,0
DA:93,0
BRF:0
BRH:0
LF:57
LH:37
end_of_record
SF:/Users/apoorvsadana/Documents/GitHub/indexer-service/src/handlers/indexers/stop_indexer.rs
FN:10,_RNvNtNtNtCscvED46PD3Z7_15indexer_service8handlers8indexers12stop_indexer12stop_indexer
FN:13,_RNCNvNtNtNtCscvED46PD3Z7_15indexer_service8handlers8indexers12stop_indexer12stop_indexer0B9_
FNDA:2,_RNvNtNtNtCscvED46PD3Z7_15indexer_service8handlers8indexers12stop_indexer12stop_indexer
FNDA:2,_RNCNvNtNtNtCscvED46PD3Z7_15indexer_service8handlers8indexers12stop_indexer12stop_indexer0B9_
FNF:2
FNH:2
DA:10,2
DA:11,2
DA:12,2
DA:13,2
DA:14,2
DA:15,4
DA:16,2
DA:17,2
DA:18,0
DA:21,2
DA:25,2
DA:26,1
DA:27,1
DA:30,2
DA:31,2
DA:32,6
DA:33,2
DA:35,2
DA:36,2
BRF:0
BRH:0
LF:20
LH:19
end_of_record
SF:/Users/apoorvsadana/Documents/GitHub/indexer-service/src/handlers/indexers/utils.rs
FN:5,_RNvNtNtNtCscvED46PD3Z7_15indexer_service8handlers8indexers5utils17get_s3_script_key
FN:9,_RNvNtNtNtCscvED46PD3Z7_15indexer_service8handlers8indexers5utils24get_script_tmp_directory
FNDA:12,_RNvNtNtNtCscvED46PD3Z7_15indexer_service8handlers8indexers5utils17get_s3_script_key
FNDA:11,_RNvNtNtNtCscvED46PD3Z7_15indexer_service8handlers8indexers5utils24get_script_tmp_directory
FNF:2
FNH:2
DA:5,12
DA:6,12
DA:7,12
DA:9,11
DA:10,11
DA:11,11
BRF:0
BRH:0
LF:6
LH:6
end_of_record
SF:/Users/apoorvsadana/Documents/GitHub/indexer-service/src/infra/db/schema.rs
FN:6,_RNvXsj_NtNtNtNtNtCscvED46PD3Z7_15indexer_service5infra2db6schema8indexers7columnsNtB5_6statusINtNtCs3fArEdILhLk_6diesel13query_builder13QueryFragmentNtNtNtB1y_2pg7backend2PgE8walk_astBf_
FN:5,_RNvXs4_NtNtNtNtNtCscvED46PD3Z7_15indexer_service5infra2db6schema8indexers7columnsNtB5_2idINtNtCs3fArEdILhLk_6diesel13query_builder13QueryFragmentNtNtNtB1u_2pg7backend2PgE8walk_astBf_
FN:8,_RNvXsy_NtNtNtNtNtCscvED46PD3Z7_15indexer_service5infra2db6schema8indexers7columnsNtB5_12indexer_typeINtNtCs3fArEdILhLk_6diesel13query_builder13QueryFragmentNtNtNtB1F_2pg7backend2PgE8walk_astBf_
FN:9,_RNvXsN_NtNtNtNtNtCscvED46PD3Z7_15indexer_service5infra2db6schema8indexers7columnsNtB5_10process_idINtNtCs3fArEdILhLk_6diesel13query_builder13QueryFragmentNtNtNtB1D_2pg7backend2PgE8walk_astBf_
FN:11,_RNvXs1l_NtNtNtNtNtCscvED46PD3Z7_15indexer_service5infra2db6schema8indexers7columnsNtB6_10table_nameINtNtCs3fArEdILhLk_6diesel13query_builder13QueryFragmentNtNtNtB1E_2pg7backend2PgE8walk_astBg_
FN:10,_RNvXs16_NtNtNtNtNtCscvED46PD3Z7_15indexer_service5infra2db6schema8indexers7columnsNtB6_10target_urlINtNtCs3fArEdILhLk_6diesel13query_builder13QueryFragmentNtNtNtB1E_2pg7backend2PgE8walk_astBg_
FN:3,_RNvXININtNtNtNtCscvED46PD3Z7_15indexer_service5infra2db6schema8indexerssd_0ppENtB5_5tableINtNtNtCs3fArEdILhLk_6diesel12query_source5joins6JoinToINtB1s_6JoinOnppEE11join_targetBd_
FN:10,_RNvXs28_NtNtNtNtNtCscvED46PD3Z7_15indexer_service5infra2db6schema8indexers7columnsNtB6_10target_urlNtNtCs7uf0n3bS6vX_4core5clone5Clone5clone
FN:3,_RNvXININtNtNtNtCscvED46PD3Z7_15indexer_service5infra2db6schema8indexerssi_0pERNtB5_5tableINtNtCs3fArEdILhLk_6diesel10insertable10InsertablepE6valuesBd_
FN:3,_RNvXININtNtNtNtNtCscvED46PD3Z7_15indexer_service5infra2db6schema8indexers7columnss0_0pENtB5_4starINtNtCs3fArEdILhLk_6diesel13query_builder13QueryFragmentpE8walk_astBf_
FN:6,_RNvXs2m_NtNtNtNtNtCscvED46PD3Z7_15indexer_service5infra2db6schema8indexers7columnsNtB6_6statusNtNtCs7uf0n3bS6vX_4core7default7Default7default
FN:3,_RNvXs3_NtNtNtNtCscvED46PD3Z7_15indexer_service5infra2db6schema8indexersNtB5_5tableNtNtCs3fArEdILhLk_6diesel12query_source5Table11primary_key
FN:9,_RNvXs2c_NtNtNtNtNtCscvED46PD3Z7_15indexer_service5infra2db6schema8indexers7columnsNtB6_10process_idNtNtCs7uf0n3bS6vX_4core5clone5Clone5clone
FN:3,_RNvXININtNtNtNtNtCscvED46PD3Z7_15indexer_service5infra2db6schema8indexers7columnss11_0pENtB5_10process_idINtNtNtCs7uf0n3bS6vX_4core3ops5arith3DivpE3divBf_
FN:3,_RNvXsn_NtNtNtNtCscvED46PD3Z7_15indexer_service5infra2db6schema8indexersNtB5_5tableNtNtCs7uf0n3bS6vX_4core5clone5Clone5clone
FN:8,_RNvXs2g_NtNtNtNtNtCscvED46PD3Z7_15indexer_service5infra2db6schema8indexers7columnsNtB6_12indexer_typeNtNtCs7uf0n3bS6vX_4core5clone5Clone5clone
FN:11,_RNvXs24_NtNtNtNtNtCscvED46PD3Z7_15indexer_service5infra2db6schema8indexers7columnsNtB6_10table_nameNtNtCs7uf0n3bS6vX_4core5clone5Clone5clone
FN:11,_RNvXs23_NtNtNtNtNtCscvED46PD3Z7_15indexer_service5infra2db6schema8indexers7columnsNtB6_10table_nameNtNtCs7uf0n3bS6vX_4core3fmt5Debug3fmt
FN:8,_RNvXs2i_NtNtNtNtNtCscvED46PD3Z7_15indexer_service5infra2db6schema8indexers7columnsNtB6_12indexer_typeNtNtCs7uf0n3bS6vX_4core7default7Default7default
FN:3,_RNvXININtNtNtNtCscvED46PD3Z7_15indexer_service5infra2db6schema8indexerssh_0pENtB5_5tableINtNtCs3fArEdILhLk_6diesel10insertable10InsertablepE6valuesBd_
FN:3,_RNvXs_NtNtNtNtCscvED46PD3Z7_15indexer_service5infra2db6schema8indexersNtB4_5tableNtNtCs3fArEdILhLk_6diesel12query_source11QuerySource11from_clause
FN:10,_RNvXs2a_NtNtNtNtNtCscvED46PD3Z7_15indexer_service5infra2db6schema8indexers7columnsNtB6_10target_urlNtNtCs7uf0n3bS6vX_4core7default7Default7default
FN:8,_RNvXININtNtNtNtNtCscvED46PD3Z7_15indexer_service5infra2db6schema8indexers7columnssJ_0pENtB5_12indexer_typeINtNtNtCs3fArEdILhLk_6diesel18expression_methods6eq_all5EqAllpE6eq_allBf_
FN:3,_RNvXININtNtNtNtNtCscvED46PD3Z7_15indexer_service5infra2db6schema8indexers7columnss12_0pENtB5_10process_idINtNtNtCs7uf0n3bS6vX_4core3ops5arith3MulpE3mulBf_
FN:9,_RNvXs2e_NtNtNtNtNtCscvED46PD3Z7_15indexer_service5infra2db6schema8indexers7columnsNtB6_10process_idNtNtCs7uf0n3bS6vX_4core7default7Default7default
FN:3,_RNvXs2s_NtNtNtNtNtCscvED46PD3Z7_15indexer_service5infra2db6schema8indexers7columnsNtB6_4starNtNtCs7uf0n3bS6vX_4core5clone5Clone5clone
FN:3,_RNvXs2r_NtNtNtNtNtCscvED46PD3Z7_15indexer_service5infra2db6schema8indexers7columnsNtB6_4starNtNtCs7uf0n3bS6vX_4core3fmt5Debug3fmt
FN:6,_RNvXININtNtNtNtNtCscvED46PD3Z7_15indexer_service5infra2db6schema8indexers7columnssu_0pENtB5_6statusINtNtNtCs3fArEdILhLk_6diesel18expression_methods6eq_all5EqAllpE6eq_allBf_
FN:3,_RNvXININtNtNtNtCscvED46PD3Z7_15indexer_service5infra2db6schema8indexerssj_0pENtB5_5tableINtNtNtCs3fArEdILhLk_6diesel12query_source5joins6JoinToINtNtNtNtB1v_2pg13query_builder4only4OnlypEE11join_targetBd_
FN:10,_RNvXININtNtNtNtNtCscvED46PD3Z7_15indexer_service5infra2db6schema8indexers7columnss1h_0pENtB5_10target_urlINtNtNtCs3fArEdILhLk_6diesel18expression_methods6eq_all5EqAllpE6eq_allBf_
FN:3,_RNvXs5_NtNtNtNtCscvED46PD3Z7_15indexer_service5infra2db6schema8indexersNtB5_5tableNtNtNtNtCs3fArEdILhLk_6diesel13query_builder16update_statement6target16IntoUpdateTarget18into_update_target
FN:6,_RNvXs2k_NtNtNtNtNtCscvED46PD3Z7_15indexer_service5infra2db6schema8indexers7columnsNtB6_6statusNtNtCs7uf0n3bS6vX_4core5clone5Clone5clone
FN:3,_RNvXININtNtNtNtCscvED46PD3Z7_15indexer_service5infra2db6schema8indexersse_0ppppppppENtB5_5tableINtNtNtCs3fArEdILhLk_6diesel12query_source5joins6JoinToINtNtNtB1C_13query_builder16select_statement15SelectStatementINtNtB2t_11from_clause10FromClausepEpppppppEE11join_targetBd_
FN:3,_RNvXININtNtNtNtNtCscvED46PD3Z7_15indexer_service5infra2db6schema8indexers7columnss10_0pENtB5_10process_idINtNtNtCs7uf0n3bS6vX_4core3ops5arith3SubpE3subBf_
FN:3,_RNvXININtNtNtNtCscvED46PD3Z7_15indexer_service5infra2db6schema8indexerssg_0pENtB5_5tableINtNtNtCs3fArEdILhLk_6diesel12query_source5joins6JoinToINtNtNtB1t_8aliasing5alias5AliaspEE11join_targetBd_
FN:6,_RNvXs2j_NtNtNtNtNtCscvED46PD3Z7_15indexer_service5infra2db6schema8indexers7columnsNtB6_6statusNtNtCs7uf0n3bS6vX_4core3fmt5Debug3fmt
FN:3,_RNvMNtNtNtNtCscvED46PD3Z7_15indexer_service5infra2db6schema8indexersNtB2_5table4star
FN:3,_RNvXININtNtNtNtNtCscvED46PD3Z7_15indexer_service5infra2db6schema8indexers7columnssZ_0pENtB5_10process_idINtNtNtCs7uf0n3bS6vX_4core3ops5arith3AddpE3addBf_
FN:3,_RNvXs_NtNtNtNtCscvED46PD3Z7_15indexer_service5infra2db6schema8indexersNtB4_5tableNtNtCs3fArEdILhLk_6diesel12query_source11QuerySource17default_selection
FN:10,_RNvXs27_NtNtNtNtNtCscvED46PD3Z7_15indexer_service5infra2db6schema8indexers7columnsNtB6_10target_urlNtNtCs7uf0n3bS6vX_4core3fmt5Debug3fmt
FN:3,_RNvXsp_NtNtNtNtCscvED46PD3Z7_15indexer_service5infra2db6schema8indexersNtB5_5tableNtNtCs7uf0n3bS6vX_4core7default7Default7default
FN:9,_RNvXININtNtNtNtNtCscvED46PD3Z7_15indexer_service5infra2db6schema8indexers7columnssY_0pENtB5_10process_idINtNtNtCs3fArEdILhLk_6diesel18expression_methods6eq_all5EqAllpE6eq_allBf_
FN:3,_RNvXININtNtNtNtCscvED46PD3Z7_15indexer_service5infra2db6schema8indexerssc_0pppENtB5_5tableINtNtNtCs3fArEdILhLk_6diesel12query_source5joins6JoinToINtB1t_4JoinpppEE11join_targetBd_
FN:9,_RNvXs2b_NtNtNtNtNtCscvED46PD3Z7_15indexer_service5infra2db6schema8indexers7columnsNtB6_10process_idNtNtCs7uf0n3bS6vX_4core3fmt5Debug3fmt
FN:11,_RNvXs26_NtNtNtNtNtCscvED46PD3Z7_15indexer_service5infra2db6schema8indexers7columnsNtB6_10table_nameNtNtCs7uf0n3bS6vX_4core7default7Default7default
FN:5,_RNvXs2q_NtNtNtNtNtCscvED46PD3Z7_15indexer_service5infra2db6schema8indexers7columnsNtB6_2idNtNtCs7uf0n3bS6vX_4core7default7Default7default
FN:5,_RNvXININtNtNtNtNtCscvED46PD3Z7_15indexer_service5infra2db6schema8indexers7columnssf_0pENtB5_2idINtNtNtCs3fArEdILhLk_6diesel18expression_methods6eq_all5EqAllpE6eq_allBf_
FN:3,_RNvXININtNtNtNtCscvED46PD3Z7_15indexer_service5infra2db6schema8indexerssf_0pppENtB5_5tableINtNtNtCs3fArEdILhLk_6diesel12query_source5joins6JoinToINtNtNtNtB1x_13query_builder16select_statement5boxed20BoxedSelectStatementINtNtB2q_11from_clause10FromClausepEppEE11join_targetBd_
FN:5,_RNvXs2o_NtNtNtNtNtCscvED46PD3Z7_15indexer_service5infra2db6schema8indexers7columnsNtB6_2idNtNtCs7uf0n3bS6vX_4core5clone5Clone5clone
FN:3,_RNvXININtNtNtNtCscvED46PD3Z7_15indexer_service5infra2db6schema8indexerssa_0ppENtB5_5tableINtNtNtNtCs3fArEdILhLk_6diesel12query_source8aliasing18field_alias_mapper48FieldAliasMapperAssociatedTypesDisjointnessTrickB1e_ppE3mapBd_
FN:3,_RNvXININtNtNtNtCscvED46PD3Z7_15indexer_service5infra2db6schema8indexerss0_0pENtB5_5tableINtNtCs3fArEdILhLk_6diesel13query_builder13QueryFragmentpE8walk_astBd_
FN:3,_RNvXs2_NtNtNtNtCscvED46PD3Z7_15indexer_service5infra2db6schema8indexersNtB5_5tableNtNtCs3fArEdILhLk_6diesel13query_builder7AsQuery8as_query
FN:5,_RNvXs2n_NtNtNtNtNtCscvED46PD3Z7_15indexer_service5infra2db6schema8indexers7columnsNtB6_2idNtNtCs7uf0n3bS6vX_4core3fmt5Debug3fmt
FN:3,_RNvXs3_NtNtNtNtCscvED46PD3Z7_15indexer_service5infra2db6schema8indexersNtB5_5tableNtNtCs3fArEdILhLk_6diesel12query_source5Table11all_columns
FN:11,_RNvXININtNtNtNtNtCscvED46PD3Z7_15indexer_service5infra2db6schema8indexers7columnss1w_0pENtB5_10table_nameINtNtNtCs3fArEdILhLk_6diesel18expression_methods6eq_all5EqAllpE6eq_allBf_
FN:3,_RNvXs4_NtNtNtNtCscvED46PD3Z7_15indexer_service5infra2db6schema8indexersNtB5_5tableNtNtCs3fArEdILhLk_6diesel12associations8HasTable5table
FN:3,_RNvXsm_NtNtNtNtCscvED46PD3Z7_15indexer_service5infra2db6schema8indexersNtB5_5tableNtNtCs7uf0n3bS6vX_4core3fmt5Debug3fmt
FN:8,_RNvXs2f_NtNtNtNtNtCscvED46PD3Z7_15indexer_service5infra2db6schema8indexers7columnsNtB6_12indexer_typeNtNtCs7uf0n3bS6vX_4core3fmt5Debug3fmt
FNDA:264,_RNvXsj_NtNtNtNtNtCscvED46PD3Z7_15indexer_service5infra2db6schema8indexers7columnsNtB5_6statusINtNtCs3fArEdILhLk_6diesel13query_builder13QueryFragmentNtNtNtB1y_2pg7backend2PgE8walk_astBf_
FNDA:330,_RNvXs4_NtNtNtNtNtCscvED46PD3Z7_15indexer_service5infra2db6schema8indexers7columnsNtB5_2idINtNtCs3fArEdILhLk_6diesel13query_builder13QueryFragmentNtNtNtB1u_2pg7backend2PgE8walk_astBf_
FNDA:258,_RNvXsy_NtNtNtNtNtCscvED46PD3Z7_15indexer_service5infra2db6schema8indexers7columnsNtB5_12indexer_typeINtNtCs3fArEdILhLk_6diesel13query_builder13QueryFragmentNtNtNtB1F_2pg7backend2PgE8walk_astBf_
FNDA:258,_RNvXsN_NtNtNtNtNtCscvED46PD3Z7_15indexer_service5infra2db6schema8indexers7columnsNtB5_10process_idINtNtCs3fArEdILhLk_6diesel13query_builder13QueryFragmentNtNtNtB1D_2pg7backend2PgE8walk_astBf_
FNDA:258,_RNvXs1l_NtNtNtNtNtCscvED46PD3Z7_15indexer_service5infra2db6schema8indexers7columnsNtB6_10table_nameINtNtCs3fArEdILhLk_6diesel13query_builder13QueryFragmentNtNtNtB1E_2pg7backend2PgE8walk_astBg_
FNDA:258,_RNvXs16_NtNtNtNtNtCscvED46PD3Z7_15indexer_service5infra2db6schema8indexers7columnsNtB6_10target_urlINtNtCs3fArEdILhLk_6diesel13query_builder13QueryFragmentNtNtNtB1E_2pg7backend2PgE8walk_astBg_
FNDA:0,_RNvXININtNtNtNtCscvED46PD3Z7_15indexer_service5infra2db6schema8indexerssd_0ppENtB5_5tableINtNtNtCs3fArEdILhLk_6diesel12query_source5joins6JoinToINtB1s_6JoinOnppEE11join_targetBd_
FNDA:0,_RNvXs28_NtNtNtNtNtCscvED46PD3Z7_15indexer_service5infra2db6schema8indexers7columnsNtB6_10target_urlNtNtCs7uf0n3bS6vX_4core5clone5Clone5clone
FNDA:0,_RNvXININtNtNtNtCscvED46PD3Z7_15indexer_service5infra2db6schema8indexerssi_0pERNtB5_5tableINtNtCs3fArEdILhLk_6diesel10insertable10InsertablepE6valuesBd_
FNDA:0,_RNvXININtNtNtNtNtCscvED46PD3Z7_15indexer_service5infra2db6schema8indexers7columnss0_0pENtB5_4starINtNtCs3fArEdILhLk_6diesel13query_builder13QueryFragmentpE8walk_astBf_
FNDA:0,_RNvXs2m_NtNtNtNtNtCscvED46PD3Z7_15indexer_service5infra2db6schema8indexers7columnsNtB6_6statusNtNtCs7uf0n3bS6vX_4core7default7Default7default
FNDA:0,_RNvXs3_NtNtNtNtCscvED46PD3Z7_15indexer_service5infra2db6schema8indexersNtB5_5tableNtNtCs3fArEdILhLk_6diesel12query_source5Table11primary_key
FNDA:0,_RNvXs2c_NtNtNtNtNtCscvED46PD3Z7_15indexer_service5infra2db6schema8indexers7columnsNtB6_10process_idNtNtCs7uf0n3bS6vX_4core5clone5Clone5clone
FNDA:0,_RNvXININtNtNtNtNtCscvED46PD3Z7_15indexer_service5infra2db6schema8indexers7columnss11_0pENtB5_10process_idINtNtNtCs7uf0n3bS6vX_4core3ops5arith3DivpE3divBf_
FNDA:0,_RNvXsn_NtNtNtNtCscvED46PD3Z7_15indexer_service5infra2db6schema8indexersNtB5_5tableNtNtCs7uf0n3bS6vX_4core5clone5Clone5clone
FNDA:0,_RNvXs2g_NtNtNtNtNtCscvED46PD3Z7_15indexer_service5infra2db6schema8indexers7columnsNtB6_12indexer_typeNtNtCs7uf0n3bS6vX_4core5clone5Clone5clone
FNDA:0,_RNvXs24_NtNtNtNtNtCscvED46PD3Z7_15indexer_service5infra2db6schema8indexers7columnsNtB6_10table_nameNtNtCs7uf0n3bS6vX_4core5clone5Clone5clone
FNDA:0,_RNvXs23_NtNtNtNtNtCscvED46PD3Z7_15indexer_service5infra2db6schema8indexers7columnsNtB6_10table_nameNtNtCs7uf0n3bS6vX_4core3fmt5Debug3fmt
FNDA:0,_RNvXs2i_NtNtNtNtNtCscvED46PD3Z7_15indexer_service5infra2db6schema8indexers7columnsNtB6_12indexer_typeNtNtCs7uf0n3bS6vX_4core7default7Default7default
FNDA:0,_RNvXININtNtNtNtCscvED46PD3Z7_15indexer_service5infra2db6schema8indexerssh_0pENtB5_5tableINtNtCs3fArEdILhLk_6diesel10insertable10InsertablepE6valuesBd_
FNDA:68,_RNvXs_NtNtNtNtCscvED46PD3Z7_15indexer_service5infra2db6schema8indexersNtB4_5tableNtNtCs3fArEdILhLk_6diesel12query_source11QuerySource11from_clause
FNDA:0,_RNvXs2a_NtNtNtNtNtCscvED46PD3Z7_15indexer_service5infra2db6schema8indexers7columnsNtB6_10target_urlNtNtCs7uf0n3bS6vX_4core7default7Default7default
FNDA:0,_RNvXININtNtNtNtNtCscvED46PD3Z7_15indexer_service5infra2db6schema8indexers7columnssJ_0pENtB5_12indexer_typeINtNtNtCs3fArEdILhLk_6diesel18expression_methods6eq_all5EqAllpE6eq_allBf_
FNDA:0,_RNvXININtNtNtNtNtCscvED46PD3Z7_15indexer_service5infra2db6schema8indexers7columnss12_0pENtB5_10process_idINtNtNtCs7uf0n3bS6vX_4core3ops5arith3MulpE3mulBf_
FNDA:0,_RNvXs2e_NtNtNtNtNtCscvED46PD3Z7_15indexer_service5infra2db6schema8indexers7columnsNtB6_10process_idNtNtCs7uf0n3bS6vX_4core7default7Default7default
FNDA:0,_RNvXs2s_NtNtNtNtNtCscvED46PD3Z7_15indexer_service5infra2db6schema8indexers7columnsNtB6_4starNtNtCs7uf0n3bS6vX_4core5clone5Clone5clone
FNDA:0,_RNvXs2r_NtNtNtNtNtCscvED46PD3Z7_15indexer_service5infra2db6schema8indexers7columnsNtB6_4starNtNtCs7uf0n3bS6vX_4core3fmt5Debug3fmt
FNDA:0,_RNvXININtNtNtNtNtCscvED46PD3Z7_15indexer_service5infra2db6schema8indexers7columnssu_0pENtB5_6statusINtNtNtCs3fArEdILhLk_6diesel18expression_methods6eq_all5EqAllpE6eq_allBf_
FNDA:0,_RNvXININtNtNtNtCscvED46PD3Z7_15indexer_service5infra2db6schema8indexerssj_0pENtB5_5tableINtNtNtCs3fArEdILhLk_6diesel12query_source5joins6JoinToINtNtNtNtB1v_2pg13query_builder4only4OnlypEE11join_targetBd_
FNDA:0,_RNvXININtNtNtNtNtCscvED46PD3Z7_15indexer_service5infra2db6schema8indexers7columnss1h_0pENtB5_10target_urlINtNtNtCs3fArEdILhLk_6diesel18expression_methods6eq_all5EqAllpE6eq_allBf_
FNDA:9,_RNvXs5_NtNtNtNtCscvED46PD3Z7_15indexer_service5infra2db6schema8indexersNtB5_5tableNtNtNtNtCs3fArEdILhLk_6diesel13query_builder16update_statement6target16IntoUpdateTarget18into_update_target
FNDA:0,_RNvXs2k_NtNtNtNtNtCscvED46PD3Z7_15indexer_service5infra2db6schema8indexers7columnsNtB6_6statusNtNtCs7uf0n3bS6vX_4core5clone5Clone5clone
FNDA:0,_RNvXININtNtNtNtCscvED46PD3Z7_15indexer_service5infra2db6schema8indexersse_0ppppppppENtB5_5tableINtNtNtCs3fArEdILhLk_6diesel12query_source5joins6JoinToINtNtNtB1C_13query_builder16select_statement15SelectStatementINtNtB2t_11from_clause10FromClausepEpppppppEE11join_targetBd_
FNDA:0,_RNvXININtNtNtNtNtCscvED46PD3Z7_15indexer_service5infra2db6schema8indexers7columnss10_0pENtB5_10process_idINtNtNtCs7uf0n3bS6vX_4core3ops5arith3SubpE3subBf_
FNDA:0,_RNvXININtNtNtNtCscvED46PD3Z7_15indexer_service5infra2db6schema8indexerssg_0pENtB5_5tableINtNtNtCs3fArEdILhLk_6diesel12query_source5joins6JoinToINtNtNtB1t_8aliasing5alias5AliaspEE11join_targetBd_
FNDA:0,_RNvXs2j_NtNtNtNtNtCscvED46PD3Z7_15indexer_service5infra2db6schema8indexers7columnsNtB6_6statusNtNtCs7uf0n3bS6vX_4core3fmt5Debug3fmt
FNDA:0,_RNvMNtNtNtNtCscvED46PD3Z7_15indexer_service5infra2db6schema8indexersNtB2_5table4star
FNDA:0,_RNvXININtNtNtNtNtCscvED46PD3Z7_15indexer_service5infra2db6schema8indexers7columnssZ_0pENtB5_10process_idINtNtNtCs7uf0n3bS6vX_4core3ops5arith3AddpE3addBf_
FNDA:27,_RNvXs_NtNtNtNtCscvED46PD3Z7_15indexer_service5infra2db6schema8indexersNtB4_5tableNtNtCs3fArEdILhLk_6diesel12query_source11QuerySource17default_selection
FNDA:0,_RNvXs27_NtNtNtNtNtCscvED46PD3Z7_15indexer_service5infra2db6schema8indexers7columnsNtB6_10target_urlNtNtCs7uf0n3bS6vX_4core3fmt5Debug3fmt
FNDA:0,_RNvXsp_NtNtNtNtCscvED46PD3Z7_15indexer_service5infra2db6schema8indexersNtB5_5tableNtNtCs7uf0n3bS6vX_4core7default7Default7default
FNDA:0,_RNvXININtNtNtNtNtCscvED46PD3Z7_15indexer_service5infra2db6schema8indexers7columnssY_0pENtB5_10process_idINtNtNtCs3fArEdILhLk_6diesel18expression_methods6eq_all5EqAllpE6eq_allBf_
FNDA:0,_RNvXININtNtNtNtCscvED46PD3Z7_15indexer_service5infra2db6schema8indexerssc_0pppENtB5_5tableINtNtNtCs3fArEdILhLk_6diesel12query_source5joins6JoinToINtB1t_4JoinpppEE11join_targetBd_
FNDA:0,_RNvXs2b_NtNtNtNtNtCscvED46PD3Z7_15indexer_service5infra2db6schema8indexers7columnsNtB6_10process_idNtNtCs7uf0n3bS6vX_4core3fmt5Debug3fmt
FNDA:0,_RNvXs26_NtNtNtNtNtCscvED46PD3Z7_15indexer_service5infra2db6schema8indexers7columnsNtB6_10table_nameNtNtCs7uf0n3bS6vX_4core7default7Default7default
FNDA:0,_RNvXs2q_NtNtNtNtNtCscvED46PD3Z7_15indexer_service5infra2db6schema8indexers7columnsNtB6_2idNtNtCs7uf0n3bS6vX_4core7default7Default7default
FNDA:0,_RNvXININtNtNtNtNtCscvED46PD3Z7_15indexer_service5infra2db6schema8indexers7columnssf_0pENtB5_2idINtNtNtCs3fArEdILhLk_6diesel18expression_methods6eq_all5EqAllpE6eq_allBf_
FNDA:0,_RNvXININtNtNtNtCscvED46PD3Z7_15indexer_service5infra2db6schema8indexerssf_0pppENtB5_5tableINtNtNtCs3fArEdILhLk_6diesel12query_source5joins6JoinToINtNtNtNtB1x_13query_builder16select_statement5boxed20BoxedSelectStatementINtNtB2q_11from_clause10FromClausepEppEE11join_targetBd_
FNDA:0,_RNvXs2o_NtNtNtNtNtCscvED46PD3Z7_15indexer_service5infra2db6schema8indexers7columnsNtB6_2idNtNtCs7uf0n3bS6vX_4core5clone5Clone5clone
FNDA:0,_RNvXININtNtNtNtCscvED46PD3Z7_15indexer_service5infra2db6schema8indexerssa_0ppENtB5_5tableINtNtNtNtCs3fArEdILhLk_6diesel12query_source8aliasing18field_alias_mapper48FieldAliasMapperAssociatedTypesDisjointnessTrickB1e_ppE3mapBd_
FNDA:0,_RNvXININtNtNtNtCscvED46PD3Z7_15indexer_service5infra2db6schema8indexerss0_0pENtB5_5tableINtNtCs3fArEdILhLk_6diesel13query_builder13QueryFragmentpE8walk_astBd_
FNDA:27,_RNvXs2_NtNtNtNtCscvED46PD3Z7_15indexer_service5infra2db6schema8indexersNtB5_5tableNtNtCs3fArEdILhLk_6diesel13query_builder7AsQuery8as_query
FNDA:0,_RNvXs2n_NtNtNtNtNtCscvED46PD3Z7_15indexer_service5infra2db6schema8indexers7columnsNtB6_2idNtNtCs7uf0n3bS6vX_4core3fmt5Debug3fmt
FNDA:36,_RNvXs3_NtNtNtNtCscvED46PD3Z7_15indexer_service5infra2db6schema8indexersNtB5_5tableNtNtCs3fArEdILhLk_6diesel12query_source5Table11all_columns
FNDA:0,_RNvXININtNtNtNtNtCscvED46PD3Z7_15indexer_service5infra2db6schema8indexers7columnss1w_0pENtB5_10table_nameINtNtNtCs3fArEdILhLk_6diesel18expression_methods6eq_all5EqAllpE6eq_allBf_
FNDA:9,_RNvXs4_NtNtNtNtCscvED46PD3Z7_15indexer_service5infra2db6schema8indexersNtB5_5tableNtNtCs3fArEdILhLk_6diesel12associations8HasTable5table
FNDA:0,_RNvXsm_NtNtNtNtCscvED46PD3Z7_15indexer_service5infra2db6schema8indexersNtB5_5tableNtNtCs7uf0n3bS6vX_4core3fmt5Debug3fmt
FNDA:0,_RNvXs2f_NtNtNtNtNtCscvED46PD3Z7_15indexer_service5infra2db6schema8indexers7columnsNtB6_12indexer_typeNtNtCs7uf0n3bS6vX_4core3fmt5Debug3fmt
FNF:7
FNH:7
DA:3,0
DA:4,176
DA:5,660
DA:6,528
DA:7,176
DA:8,516
DA:9,516
DA:10,516
DA:11,516
DA:12,176
DA:13,176
BRF:0
BRH:0
LF:18
LH:18
end_of_record
SF:/Users/apoorvsadana/Documents/GitHub/indexer-service/src/infra/errors.rs
FN:5,_RNvXs0_NtNtCscvED46PD3Z7_15indexer_service5infra6errorsNtB5_10InfraErrorNtNtCs7uf0n3bS6vX_4core3fmt5Debug3fmt
FN:5,_RNvXs2_NtNtCscvED46PD3Z7_15indexer_service5infra6errorsNtB5_10InfraErrorNtNtCs7uf0n3bS6vX_4core3fmt7Display3fmt
FN:27,_RNvXs_NtNtCscvED46PD3Z7_15indexer_service5infra6errorsNtB4_10InfraErrorINtNtCs7uf0n3bS6vX_4core7convert4FromINtNtNtCshRSqUFm56Ux_8deadpool7managed6errors9PoolErrorNtNtCs2nh2tdcreNe_12diesel_async17pooled_connection9PoolErrorEE4from
FN:18,_RNvXNtNtCscvED46PD3Z7_15indexer_service5infra6errorsNtB2_10InfraErrorINtNtCs7uf0n3bS6vX_4core7convert4FromNtNtCs3fArEdILhLk_6diesel6result5ErrorE4from
FNDA:0,_RNvXs0_NtNtCscvED46PD3Z7_15indexer_service5infra6errorsNtB5_10InfraErrorNtNtCs7uf0n3bS6vX_4core3fmt5Debug3fmt
FNDA:0,_RNvXs2_NtNtCscvED46PD3Z7_15indexer_service5infra6errorsNtB5_10InfraErrorNtNtCs7uf0n3bS6vX_4core3fmt7Display3fmt
FNDA:0,_RNvXs_NtNtCscvED46PD3Z7_15indexer_service5infra6errorsNtB4_10InfraErrorINtNtCs7uf0n3bS6vX_4core7convert4FromINtNtNtCshRSqUFm56Ux_8deadpool7managed6errors9PoolErrorNtNtCs2nh2tdcreNe_12diesel_async17pooled_connection9PoolErrorEE4from
FNDA:0,_RNvXNtNtCscvED46PD3Z7_15indexer_service5infra6errorsNtB2_10InfraErrorINtNtCs7uf0n3bS6vX_4core7convert4FromNtNtCs3fArEdILhLk_6diesel6result5ErrorE4from
FNF:4
FNH:0
DA:5,0
DA:18,0
DA:19,0
DA:20,0
DA:21,0
DA:23,0
DA:27,0
DA:28,0
DA:29,0
BRF:0
BRH:0
LF:10
LH:0
end_of_record
SF:/Users/apoorvsadana/Documents/GitHub/indexer-service/src/infra/repositories/indexer_repository.rs
FN:141,_RNCNCNvNtNtNtCscvED46PD3Z7_15indexer_service5infra12repositories18indexer_repository7get_all00Bb_
FN:119,_RNCNvNtNtNtCscvED46PD3Z7_15indexer_service5infra12repositories18indexer_repository3get0B9_
FN:74,_RNvMNtNtNtCscvED46PD3Z7_15indexer_service5infra12repositories18indexer_repositoryNtB2_17IndexerRepository3new
FN:148,_RNvNtNtNtCscvED46PD3Z7_15indexer_service5infra12repositories18indexer_repository13update_status
FN:217,_RNCNvNtNtNtNtNtCscvED46PD3Z7_15indexer_service5infra12repositories18indexer_repository5tests44test_from_indexer_db_to_indexer_model_status6case_10Bd_
FN:89,_RNvXs1_NtNtNtCscvED46PD3Z7_15indexer_service5infra12repositories18indexer_repositoryNtB5_17IndexerRepositoryNtB5_10Repository7get_all
FN:132,_RNCNvNtNtNtCscvED46PD3Z7_15indexer_service5infra12repositories18indexer_repository7get_all0B9_
FN:89,_RNCNvXs1_NtNtNtCscvED46PD3Z7_15indexer_service5infra12repositories18indexer_repositoryNtB7_17IndexerRepositoryNtB7_10Repository7get_all0Bd_
FN:217,_RNCNvNtNtNtNtNtCscvED46PD3Z7_15indexer_service5infra12repositories18indexer_repository5tests44test_from_indexer_db_to_indexer_model_status6case_30Bd_
FN:152,_RNCNvNtNtNtCscvED46PD3Z7_15indexer_service5infra12repositories18indexer_repository13update_status0B9_
FN:32,_RNvXNvNtNtNtCscvED46PD3Z7_15indexer_service5infra12repositories18indexer_repositorys3_1__NtB4_12NewIndexerDbINtNtCs3fArEdILhLk_6diesel10insertable10InsertableNtNtNtNtB8_2db6schema8indexers5tableE6values
FN:97,_RNvXs1_NtNtNtCscvED46PD3Z7_15indexer_service5infra12repositories18indexer_repositoryNtB5_17IndexerRepositoryNtB5_10Repository28update_status_and_process_id
FN:260,_RNCNvNtNtNtNtNtCscvED46PD3Z7_15indexer_service5infra12repositories18indexer_repository5tests42test_from_indexer_db_to_indexer_model_type6case_10Bd_
FN:81,_RNCNvXs1_NtNtNtCscvED46PD3Z7_15indexer_service5infra12repositories18indexer_repositoryNtB7_17IndexerRepositoryNtB7_10Repository6insert0Bd_
FN:32,_RNCNvXNvNtNtNtCscvED46PD3Z7_15indexer_service5infra12repositories18indexer_repositorys3_1__NtB6_12NewIndexerDbINtNtCs3fArEdILhLk_6diesel10insertable10InsertableNtNtNtNtBa_2db6schema8indexers5tableE6values0Bc_
FN:15,_RNvXNvNtNtNtCscvED46PD3Z7_15indexer_service5infra12repositories18indexer_repositorys_1__NtB4_9IndexerDbINtNtCs3fArEdILhLk_6diesel11deserialize9QueryableTNtNtNtNtB1I_2pg5types9sql_types4UuidNtNtB1I_9sql_types4TextB31_INtB33_8NullableNtB33_6BigIntEIB3t_B31_EB3W_ENtNtB2x_7backend2PgE5buildBa_
FN:105,_RNvNtNtNtCscvED46PD3Z7_15indexer_service5infra12repositories18indexer_repository7__insert
FN:85,_RNvXs1_NtNtNtCscvED46PD3Z7_15indexer_service5infra12repositories18indexer_repositoryNtB5_17IndexerRepositoryNtB5_10Repository3get
FN:168,_RNCNvNtNtNtCscvED46PD3Z7_15indexer_service5infra12repositories18indexer_repository28update_status_and_process_id0B9_
FN:260,_RNCNvNtNtNtNtNtCscvED46PD3Z7_15indexer_service5infra12repositories18indexer_repository5tests42test_from_indexer_db_to_indexer_model_type6case_20Bd_
FN:217,_RNCNvNtNtNtNtNtCscvED46PD3Z7_15indexer_service5infra12repositories18indexer_repository5tests44test_from_indexer_db_to_indexer_model_status6case_60Bd_
FN:217,_RNCNvNtNtNtNtNtCscvED46PD3Z7_15indexer_service5infra12repositories18indexer_repository5tests44test_from_indexer_db_to_indexer_model_status6case_20Bd_
FN:15,_RNvXNvNtNtNtCscvED46PD3Z7_15indexer_service5infra12repositories18indexer_repositorys0_1__NtB4_9IndexerDbINtNtCs3fArEdILhLk_6diesel10expression10SelectableNtNtNtB1J_2pg7backend2PgE19construct_selectionBa_
FN:93,_RNvXs1_NtNtNtCscvED46PD3Z7_15indexer_service5infra12repositories18indexer_repositoryNtB5_17IndexerRepositoryNtB5_10Repository13update_status
FN:32,_RNCNvXNvNtNtNtCscvED46PD3Z7_15indexer_service5infra12repositories18indexer_repositorys3_1__NtB6_12NewIndexerDbINtNtCs3fArEdILhLk_6diesel10insertable10InsertableNtNtNtNtBa_2db6schema8indexers5tableE6valuess_0Bc_
FN:81,_RNvXs1_NtNtNtCscvED46PD3Z7_15indexer_service5infra12repositories18indexer_repositoryNtB5_17IndexerRepositoryNtB5_10Repository6insert
FN:100,_RNCNvXs1_NtNtNtCscvED46PD3Z7_15indexer_service5infra12repositories18indexer_repositoryNtB7_17IndexerRepositoryNtB7_10Repository28update_status_and_process_id0Bd_
FN:93,_RNCNvXs1_NtNtNtCscvED46PD3Z7_15indexer_service5infra12repositories18indexer_repositoryNtB7_17IndexerRepositoryNtB7_10Repository13update_status0Bd_
FN:217,_RNCNvNtNtNtNtNtCscvED46PD3Z7_15indexer_service5infra12repositories18indexer_repository5tests44test_from_indexer_db_to_indexer_model_status6case_40Bd_
FN:85,_RNCNvXs1_NtNtNtCscvED46PD3Z7_15indexer_service5infra12repositories18indexer_repositoryNtB7_17IndexerRepositoryNtB7_10Repository3get0Bd_
FN:217,_RNCNvNtNtNtNtNtCscvED46PD3Z7_15indexer_service5infra12repositories18indexer_repository5tests44test_from_indexer_db_to_indexer_model_status6case_50Bd_
FN:131,_RNvNtNtNtCscvED46PD3Z7_15indexer_service5infra12repositories18indexer_repository7get_all
FN:106,_RNCNvNtNtNtCscvED46PD3Z7_15indexer_service5infra12repositories18indexer_repository7__insert0B9_
FN:164,_RNvNtNtNtCscvED46PD3Z7_15indexer_service5infra12repositories18indexer_repository28update_status_and_process_id
FN:118,_RNvNtNtNtCscvED46PD3Z7_15indexer_service5infra12repositories18indexer_repository3get
FN:260,_RNvNtNtNtNtCscvED46PD3Z7_15indexer_service5infra12repositories18indexer_repository5tests42test_from_indexer_db_to_indexer_model_type
FN:217,_RNvNtNtNtNtCscvED46PD3Z7_15indexer_service5infra12repositories18indexer_repository5tests44test_from_indexer_db_to_indexer_model_status
FN:217,_RNvNtNtNtNtNtCscvED46PD3Z7_15indexer_service5infra12repositories18indexer_repository5tests44test_from_indexer_db_to_indexer_model_statuss_6case_5
FN:217,_RNvNtNtNtNtNtCscvED46PD3Z7_15indexer_service5infra12repositories18indexer_repository5tests44test_from_indexer_db_to_indexer_model_statuss_6case_2
FN:217,_RNvNtNtNtNtNtCscvED46PD3Z7_15indexer_service5infra12repositories18indexer_repository5tests44test_from_indexer_db_to_indexer_model_statuss_6case_3
FN:217,_RNvNtNtNtNtNtCscvED46PD3Z7_15indexer_service5infra12repositories18indexer_repository5tests44test_from_indexer_db_to_indexer_model_statuss_6case_4
FN:217,_RNvNtNtNtNtNtCscvED46PD3Z7_15indexer_service5infra12repositories18indexer_repository5tests44test_from_indexer_db_to_indexer_model_statuss_6case_6
FN:217,_RNvNtNtNtNtNtCscvED46PD3Z7_15indexer_service5infra12repositories18indexer_repository5tests44test_from_indexer_db_to_indexer_model_statuss_6case_1
FN:42,_RINvXNvXNvNtNtNtCscvED46PD3Z7_15indexer_service5infra12repositories18indexer_repositorys4_1__NtB8_21UpdateIndexerStatusDbNtNtCseK5fOxzA7Ha_5serde2de11Deserialize11deserializeNtB3_14___FieldVisitorNtB1X_7Visitor11visit_bytespEBe_
FN:32,_RINvXs_NvXNvNtNtNtCscvED46PD3Z7_15indexer_service5infra12repositories18indexer_repositorys2_1__NtBa_12NewIndexerDbNtNtCseK5fOxzA7Ha_5serde2de11Deserialize11deserializeNtB5_7___FieldB1O_11deserializepEBg_
FN:27,_RINvXNvNtNtNtCscvED46PD3Z7_15indexer_service5infra12repositories18indexer_repositorys1_1__NtB5_13IndexerFilterNtNtCseK5fOxzA7Ha_5serde2de11Deserialize11deserializepEBb_
FN:32,_RINvXs0_NvXNvNtNtNtCscvED46PD3Z7_15indexer_service5infra12repositories18indexer_repositorys2_1__NtBb_12NewIndexerDbNtNtCseK5fOxzA7Ha_5serde2de11Deserialize11deserializeNtB6_9___VisitorNtB1R_7Visitor9visit_mappEBh_
FN:32,_RNCNvXs_NvNtNtNtCscvED46PD3Z7_15indexer_service5infra12repositories18indexer_repositorys3_1__RNtB8_12NewIndexerDbINtNtCs3fArEdILhLk_6diesel10insertable10InsertableNtNtNtNtBc_2db6schema8indexers5tableE6values0Be_
FN:27,_RINvXs0_NvXNvNtNtNtCscvED46PD3Z7_15indexer_service5infra12repositories18indexer_repositorys1_1__NtBb_13IndexerFilterNtNtCseK5fOxzA7Ha_5serde2de11Deserialize11deserializeNtB6_9___VisitorNtB1S_7Visitor9visit_mappEBh_
FN:15,_RINvXNvNtNtNtCscvED46PD3Z7_15indexer_service5infra12repositories18indexer_repository1__NtB5_9IndexerDbNtNtCseK5fOxzA7Ha_5serde3ser9Serialize9serializepEBb_
FN:32,_RINvXNvXNvNtNtNtCscvED46PD3Z7_15indexer_service5infra12repositories18indexer_repositorys2_1__NtB8_12NewIndexerDbNtNtCseK5fOxzA7Ha_5serde2de11Deserialize11deserializeNtB3_14___FieldVisitorNtB1O_7Visitor9visit_strpEBe_
FN:32,_RINvXs0_NvXNvNtNtNtCscvED46PD3Z7_15indexer_service5infra12repositories18indexer_repositorys2_1__NtBb_12NewIndexerDbNtNtCseK5fOxzA7Ha_5serde2de11Deserialize11deserializeNtB6_9___VisitorNtB1R_7Visitor9visit_seqpEBh_
FN:27,_RINvXNvXNvNtNtNtCscvED46PD3Z7_15indexer_service5infra12repositories18indexer_repositorys1_1__NtB8_13IndexerFilterNtNtCseK5fOxzA7Ha_5serde2de11Deserialize11deserializeNtB3_14___FieldVisitorNtB1P_7Visitor9visit_strpEBe_
FN:27,_RINvXs0_NvXNvNtNtNtCscvED46PD3Z7_15indexer_service5infra12repositories18indexer_repositorys1_1__NtBb_13IndexerFilterNtNtCseK5fOxzA7Ha_5serde2de11Deserialize11deserializeNtB6_9___VisitorNtB1S_7Visitor9visit_seqpEBh_
FN:32,_RINvXNvXNvNtNtNtCscvED46PD3Z7_15indexer_service5infra12repositories18indexer_repositorys2_1__NtB8_12NewIndexerDbNtNtCseK5fOxzA7Ha_5serde2de11Deserialize11deserializeNtB3_14___FieldVisitorNtB1O_7Visitor9visit_u64pEBe_
FN:182,_RNvXs_NtNtNtCscvED46PD3Z7_15indexer_service5infra12repositories18indexer_repositoryNtNtNtNtBa_6domain6models7indexer12IndexerModelINtNtCs7uf0n3bS6vX_4core7convert7TryFromNtB4_12NewIndexerDbE8try_from
FN:27,_RINvXNvXNvNtNtNtCscvED46PD3Z7_15indexer_service5infra12repositories18indexer_repositorys1_1__NtB8_13IndexerFilterNtNtCseK5fOxzA7Ha_5serde2de11Deserialize11deserializeNtB3_14___FieldVisitorNtB1P_7Visitor9visit_u64pEBe_
FN:32,_RNCNvXs_NvNtNtNtCscvED46PD3Z7_15indexer_service5infra12repositories18indexer_repositorys3_1__RNtB8_12NewIndexerDbINtNtCs3fArEdILhLk_6diesel10insertable10InsertableNtNtNtNtBc_2db6schema8indexers5tableE6valuess_0Be_
FN:42,_RINvXs_NvXNvNtNtNtCscvED46PD3Z7_15indexer_service5infra12repositories18indexer_repositorys4_1__NtBa_21UpdateIndexerStatusDbNtNtCseK5fOxzA7Ha_5serde2de11Deserialize11deserializeNtB5_7___FieldB1X_11deserializepEBg_
FN:49,_RINvXNvNtNtNtCscvED46PD3Z7_15indexer_service5infra12repositories18indexer_repositorys6_1__NtB5_33UpdateIndexerStatusAndProcessIdDbNtNtCseK5fOxzA7Ha_5serde2de11Deserialize11deserializepEBb_
FN:42,_RINvXNvNtNtNtCscvED46PD3Z7_15indexer_service5infra12repositories18indexer_repositorys4_1__NtB5_21UpdateIndexerStatusDbNtNtCseK5fOxzA7Ha_5serde2de11Deserialize11deserializepEBb_
FN:32,_RNvXs_NvNtNtNtCscvED46PD3Z7_15indexer_service5infra12repositories18indexer_repositorys3_1__RNtB6_12NewIndexerDbINtNtCs3fArEdILhLk_6diesel10insertable10InsertableNtNtNtNtBa_2db6schema8indexers5tableE6values
FN:49,_RINvXNvXNvNtNtNtCscvED46PD3Z7_15indexer_service5infra12repositories18indexer_repositorys6_1__NtB8_33UpdateIndexerStatusAndProcessIdDbNtNtCseK5fOxzA7Ha_5serde2de11Deserialize11deserializeNtB3_14___FieldVisitorNtB29_7Visitor9visit_strpEBe_
FN:27,_RINvXs_NvXNvNtNtNtCscvED46PD3Z7_15indexer_service5infra12repositories18indexer_repositorys1_1__NtBa_13IndexerFilterNtNtCseK5fOxzA7Ha_5serde2de11Deserialize11deserializeNtB5_7___FieldB1P_11deserializepEBg_
FN:42,_RINvXNvXNvNtNtNtCscvED46PD3Z7_15indexer_service5infra12repositories18indexer_repositorys4_1__NtB8_21UpdateIndexerStatusDbNtNtCseK5fOxzA7Ha_5serde2de11Deserialize11deserializeNtB3_14___FieldVisitorNtB1X_7Visitor9visit_strpEBe_
FN:49,_RINvXs0_NvXNvNtNtNtCscvED46PD3Z7_15indexer_service5infra12repositories18indexer_repositorys6_1__NtBb_33UpdateIndexerStatusAndProcessIdDbNtNtCseK5fOxzA7Ha_5serde2de11Deserialize11deserializeNtB6_9___VisitorNtB2c_7Visitor9visit_seqpEBh_
FN:42,_RINvXNvXNvNtNtNtCscvED46PD3Z7_15indexer_service5infra12repositories18indexer_repositorys4_1__NtB8_21UpdateIndexerStatusDbNtNtCseK5fOxzA7Ha_5serde2de11Deserialize11deserializeNtB3_14___FieldVisitorNtB1X_7Visitor9visit_u64pEBe_
FN:49,_RNvXNvNtNtNtCscvED46PD3Z7_15indexer_service5infra12repositories18indexer_repositorys7_1__NtB4_33UpdateIndexerStatusAndProcessIdDbINtNtCs3fArEdILhLk_6diesel10insertable10InsertableNtNtNtNtB8_2db6schema8indexers5tableE6values
FN:42,_RNvXs0_NvXNvNtNtNtCscvED46PD3Z7_15indexer_service5infra12repositories18indexer_repositorys4_1__NtBa_21UpdateIndexerStatusDbNtNtCseK5fOxzA7Ha_5serde2de11Deserialize11deserializeNtB5_9___VisitorNtB1Z_7Visitor9expecting
FN:32,_RNvXs0_NvXNvNtNtNtCscvED46PD3Z7_15indexer_service5infra12repositories18indexer_repositorys2_1__NtBa_12NewIndexerDbNtNtCseK5fOxzA7Ha_5serde2de11Deserialize11deserializeNtB5_9___VisitorNtB1Q_7Visitor9expecting
FN:49,_RINvXs0_NvXNvNtNtNtCscvED46PD3Z7_15indexer_service5infra12repositories18indexer_repositorys6_1__NtBb_33UpdateIndexerStatusAndProcessIdDbNtNtCseK5fOxzA7Ha_5serde2de11Deserialize11deserializeNtB6_9___VisitorNtB2c_7Visitor9visit_mappEBh_
FN:42,_RINvXs0_NvXNvNtNtNtCscvED46PD3Z7_15indexer_service5infra12repositories18indexer_repositorys4_1__NtBb_21UpdateIndexerStatusDbNtNtCseK5fOxzA7Ha_5serde2de11Deserialize11deserializeNtB6_9___VisitorNtB20_7Visitor9visit_seqpEBh_
FN:42,_RNvXNvXNvNtNtNtCscvED46PD3Z7_15indexer_service5infra12repositories18indexer_repositorys4_1__NtB7_21UpdateIndexerStatusDbNtNtCseK5fOxzA7Ha_5serde2de11Deserialize11deserializeNtB2_14___FieldVisitorNtB1W_7Visitor9expecting
FN:32,_RNvXNvXNvNtNtNtCscvED46PD3Z7_15indexer_service5infra12repositories18indexer_repositorys2_1__NtB7_12NewIndexerDbNtNtCseK5fOxzA7Ha_5serde2de11Deserialize11deserializeNtB2_14___FieldVisitorNtB1N_7Visitor9expecting
FN:42,_RNvXNvNtNtNtCscvED46PD3Z7_15indexer_service5infra12repositories18indexer_repositorys5_1__NtB4_21UpdateIndexerStatusDbINtNtCs3fArEdILhLk_6diesel10insertable10InsertableNtNtNtNtB8_2db6schema8indexers5tableE6values
FN:49,_RNvXs_NvNtNtNtCscvED46PD3Z7_15indexer_service5infra12repositories18indexer_repositorys7_1__RNtB6_33UpdateIndexerStatusAndProcessIdDbINtNtCs3fArEdILhLk_6diesel10insertable10InsertableNtNtNtNtBa_2db6schema8indexers5tableE6values
FN:42,_RINvXs0_NvXNvNtNtNtCscvED46PD3Z7_15indexer_service5infra12repositories18indexer_repositorys4_1__NtBb_21UpdateIndexerStatusDbNtNtCseK5fOxzA7Ha_5serde2de11Deserialize11deserializeNtB6_9___VisitorNtB20_7Visitor9visit_mappEBh_
FN:49,_RINvXNvXNvNtNtNtCscvED46PD3Z7_15indexer_service5infra12repositories18indexer_repositorys6_1__NtB8_33UpdateIndexerStatusAndProcessIdDbNtNtCseK5fOxzA7Ha_5serde2de11Deserialize11deserializeNtB3_14___FieldVisitorNtB29_7Visitor9visit_u64pEBe_
FN:49,_RNvXNvXNvNtNtNtCscvED46PD3Z7_15indexer_service5infra12repositories18indexer_repositorys6_1__NtB7_33UpdateIndexerStatusAndProcessIdDbNtNtCseK5fOxzA7Ha_5serde2de11Deserialize11deserializeNtB2_14___FieldVisitorNtB28_7Visitor9expecting
FN:32,_RINvXNvNtNtNtCscvED46PD3Z7_15indexer_service5infra12repositories18indexer_repositorys2_1__NtB5_12NewIndexerDbNtNtCseK5fOxzA7Ha_5serde2de11Deserialize11deserializepEBb_
FN:27,_RNvXs0_NvXNvNtNtNtCscvED46PD3Z7_15indexer_service5infra12repositories18indexer_repositorys1_1__NtBa_13IndexerFilterNtNtCseK5fOxzA7Ha_5serde2de11Deserialize11deserializeNtB5_9___VisitorNtB1R_7Visitor9expecting
FN:49,_RINvXNvXNvNtNtNtCscvED46PD3Z7_15indexer_service5infra12repositories18indexer_repositorys6_1__NtB8_33UpdateIndexerStatusAndProcessIdDbNtNtCseK5fOxzA7Ha_5serde2de11Deserialize11deserializeNtB3_14___FieldVisitorNtB29_7Visitor11visit_bytespEBe_
FN:42,_RNvXs_NvNtNtNtCscvED46PD3Z7_15indexer_service5infra12repositories18indexer_repositorys5_1__RNtB6_21UpdateIndexerStatusDbINtNtCs3fArEdILhLk_6diesel10insertable10InsertableNtNtNtNtBa_2db6schema8indexers5tableE6values
FN:32,_RINvXNvXNvNtNtNtCscvED46PD3Z7_15indexer_service5infra12repositories18indexer_repositorys2_1__NtB8_12NewIndexerDbNtNtCseK5fOxzA7Ha_5serde2de11Deserialize11deserializeNtB3_14___FieldVisitorNtB1O_7Visitor11visit_bytespEBe_
FN:27,_RINvXNvXNvNtNtNtCscvED46PD3Z7_15indexer_service5infra12repositories18indexer_repositorys1_1__NtB8_13IndexerFilterNtNtCseK5fOxzA7Ha_5serde2de11Deserialize11deserializeNtB3_14___FieldVisitorNtB1P_7Visitor11visit_bytespEBe_
FN:49,_RINvXs_NvXNvNtNtNtCscvED46PD3Z7_15indexer_service5infra12repositories18indexer_repositorys6_1__NtBa_33UpdateIndexerStatusAndProcessIdDbNtNtCseK5fOxzA7Ha_5serde2de11Deserialize11deserializeNtB5_7___FieldB29_11deserializepEBg_
FN:15,_RNvNvNtNtNtCscvED46PD3Z7_15indexer_service5infra12repositories18indexer_repositorys0_1__26__check_field_compatibility
FN:49,_RNvXs0_NvXNvNtNtNtCscvED46PD3Z7_15indexer_service5infra12repositories18indexer_repositorys6_1__NtBa_33UpdateIndexerStatusAndProcessIdDbNtNtCseK5fOxzA7Ha_5serde2de11Deserialize11deserializeNtB5_9___VisitorNtB2b_7Visitor9expecting
FN:27,_RNvXNvXNvNtNtNtCscvED46PD3Z7_15indexer_service5infra12repositories18indexer_repositorys1_1__NtB7_13IndexerFilterNtNtCseK5fOxzA7Ha_5serde2de11Deserialize11deserializeNtB2_14___FieldVisitorNtB1O_7Visitor9expecting
FN:198,_RNvXs0_NtNtNtCscvED46PD3Z7_15indexer_service5infra12repositories18indexer_repositoryNtNtNtNtBb_6domain6models7indexer12IndexerModelINtNtCs7uf0n3bS6vX_4core7convert7TryFromNtB5_9IndexerDbE8try_from
FN:260,_RNvNtNtNtNtNtCscvED46PD3Z7_15indexer_service5infra12repositories18indexer_repository5tests42test_from_indexer_db_to_indexer_model_types_6case_1
FN:260,_RNvNtNtNtNtNtCscvED46PD3Z7_15indexer_service5infra12repositories18indexer_repository5tests42test_from_indexer_db_to_indexer_model_types_6case_2
FNDA:12,_RNCNCNvNtNtNtCscvED46PD3Z7_15indexer_service5infra12repositories18indexer_repository7get_all00Bb_
FNDA:15,_RNCNvNtNtNtCscvED46PD3Z7_15indexer_service5infra12repositories18indexer_repository3get0B9_
FNDA:19,_RNvMNtNtNtCscvED46PD3Z7_15indexer_service5infra12repositories18indexer_repositoryNtB2_17IndexerRepository3new
FNDA:4,_RNvNtNtNtCscvED46PD3Z7_15indexer_service5infra12repositories18indexer_repository13update_status
FNDA:1,_RNCNvNtNtNtNtNtCscvED46PD3Z7_15indexer_service5infra12repositories18indexer_repository5tests44test_from_indexer_db_to_indexer_model_status6case_10Bd_
FNDA:3,_RNvXs1_NtNtNtCscvED46PD3Z7_15indexer_service5infra12repositories18indexer_repositoryNtB5_17IndexerRepositoryNtB5_10Repository7get_all
FNDA:3,_RNCNvNtNtNtCscvED46PD3Z7_15indexer_service5infra12repositories18indexer_repository7get_all0B9_
FNDA:3,_RNCNvXs1_NtNtNtCscvED46PD3Z7_15indexer_service5infra12repositories18indexer_repositoryNtB7_17IndexerRepositoryNtB7_10Repository7get_all0Bd_
FNDA:1,_RNCNvNtNtNtNtNtCscvED46PD3Z7_15indexer_service5infra12repositories18indexer_repository5tests44test_from_indexer_db_to_indexer_model_status6case_30Bd_
FNDA:4,_RNCNvNtNtNtCscvED46PD3Z7_15indexer_service5infra12repositories18indexer_repository13update_status0B9_
FNDA:16,_RNvXNvNtNtNtCscvED46PD3Z7_15indexer_service5infra12repositories18indexer_repositorys3_1__NtB4_12NewIndexerDbINtNtCs3fArEdILhLk_6diesel10insertable10InsertableNtNtNtNtB8_2db6schema8indexers5tableE6values
FNDA:5,_RNvXs1_NtNtNtCscvED46PD3Z7_15indexer_service5infra12repositories18indexer_repositoryNtB5_17IndexerRepositoryNtB5_10Repository28update_status_and_process_id
FNDA:1,_RNCNvNtNtNtNtNtCscvED46PD3Z7_15indexer_service5infra12repositories18indexer_repository5tests42test_from_indexer_db_to_indexer_model_type6case_10Bd_
FNDA:10,_RNCNvXs1_NtNtNtCscvED46PD3Z7_15indexer_service5infra12repositories18indexer_repositoryNtB7_17IndexerRepositoryNtB7_10Repository6insert0Bd_
FNDA:15,_RNCNvXNvNtNtNtCscvED46PD3Z7_15indexer_service5infra12repositories18indexer_repositorys3_1__NtB6_12NewIndexerDbINtNtCs3fArEdILhLk_6diesel10insertable10InsertableNtNtNtNtBa_2db6schema8indexers5tableE6values0Bc_
FNDA:52,_RNvXNvNtNtNtCscvED46PD3Z7_15indexer_service5infra12repositories18indexer_repositorys_1__NtB4_9IndexerDbINtNtCs3fArEdILhLk_6diesel11deserialize9QueryableTNtNtNtNtB1I_2pg5types9sql_types4UuidNtNtB1I_9sql_types4TextB31_INtB33_8NullableNtB33_6BigIntEIB3t_B31_EB3W_ENtNtB2x_7backend2PgE5buildBa_
FNDA:10,_RNvNtNtNtCscvED46PD3Z7_15indexer_service5infra12repositories18indexer_repository7__insert
FNDA:15,_RNvXs1_NtNtNtCscvED46PD3Z7_15indexer_service5infra12repositories18indexer_repositoryNtB5_17IndexerRepositoryNtB5_10Repository3get
FNDA:5,_RNCNvNtNtNtCscvED46PD3Z7_15indexer_service5infra12repositories18indexer_repository28update_status_and_process_id0B9_
FNDA:1,_RNCNvNtNtNtNtNtCscvED46PD3Z7_15indexer_service5infra12repositories18indexer_repository5tests42test_from_indexer_db_to_indexer_model_type6case_20Bd_
FNDA:1,_RNCNvNtNtNtNtNtCscvED46PD3Z7_15indexer_service5infra12repositories18indexer_repository5tests44test_from_indexer_db_to_indexer_model_status6case_60Bd_
FNDA:1,_RNCNvNtNtNtNtNtCscvED46PD3Z7_15indexer_service5infra12repositories18indexer_repository5tests44test_from_indexer_db_to_indexer_model_status6case_20Bd_
FNDA:34,_RNvXNvNtNtNtCscvED46PD3Z7_15indexer_service5infra12repositories18indexer_repositorys0_1__NtB4_9IndexerDbINtNtCs3fArEdILhLk_6diesel10expression10SelectableNtNtNtB1J_2pg7backend2PgE19construct_selectionBa_
FNDA:4,_RNvXs1_NtNtNtCscvED46PD3Z7_15indexer_service5infra12repositories18indexer_repositoryNtB5_17IndexerRepositoryNtB5_10Repository13update_status
FNDA:1,_RNCNvXNvNtNtNtCscvED46PD3Z7_15indexer_service5infra12repositories18indexer_repositorys3_1__NtB6_12NewIndexerDbINtNtCs3fArEdILhLk_6diesel10insertable10InsertableNtNtNtNtBa_2db6schema8indexers5tableE6valuess_0Bc_
FNDA:10,_RNvXs1_NtNtNtCscvED46PD3Z7_15indexer_service5infra12repositories18indexer_repositoryNtB5_17IndexerRepositoryNtB5_10Repository6insert
FNDA:5,_RNCNvXs1_NtNtNtCscvED46PD3Z7_15indexer_service5infra12repositories18indexer_repositoryNtB7_17IndexerRepositoryNtB7_10Repository28update_status_and_process_id0Bd_
FNDA:4,_RNCNvXs1_NtNtNtCscvED46PD3Z7_15indexer_service5infra12repositories18indexer_repositoryNtB7_17IndexerRepositoryNtB7_10Repository13update_status0Bd_
FNDA:1,_RNCNvNtNtNtNtNtCscvED46PD3Z7_15indexer_service5infra12repositories18indexer_repository5tests44test_from_indexer_db_to_indexer_model_status6case_40Bd_
FNDA:15,_RNCNvXs1_NtNtNtCscvED46PD3Z7_15indexer_service5infra12repositories18indexer_repositoryNtB7_17IndexerRepositoryNtB7_10Repository3get0Bd_
FNDA:1,_RNCNvNtNtNtNtNtCscvED46PD3Z7_15indexer_service5infra12repositories18indexer_repository5tests44test_from_indexer_db_to_indexer_model_status6case_50Bd_
FNDA:3,_RNvNtNtNtCscvED46PD3Z7_15indexer_service5infra12repositories18indexer_repository7get_all
FNDA:10,_RNCNvNtNtNtCscvED46PD3Z7_15indexer_service5infra12repositories18indexer_repository7__insert0B9_
FNDA:5,_RNvNtNtNtCscvED46PD3Z7_15indexer_service5infra12repositories18indexer_repository28update_status_and_process_id
FNDA:15,_RNvNtNtNtCscvED46PD3Z7_15indexer_service5infra12repositories18indexer_repository3get
FNDA:2,_RNvNtNtNtNtCscvED46PD3Z7_15indexer_service5infra12repositories18indexer_repository5tests42test_from_indexer_db_to_indexer_model_type
FNDA:6,_RNvNtNtNtNtCscvED46PD3Z7_15indexer_service5infra12repositories18indexer_repository5tests44test_from_indexer_db_to_indexer_model_status
FNDA:1,_RNvNtNtNtNtNtCscvED46PD3Z7_15indexer_service5infra12repositories18indexer_repository5tests44test_from_indexer_db_to_indexer_model_statuss_6case_5
FNDA:1,_RNvNtNtNtNtNtCscvED46PD3Z7_15indexer_service5infra12repositories18indexer_repository5tests44test_from_indexer_db_to_indexer_model_statuss_6case_2
FNDA:1,_RNvNtNtNtNtNtCscvED46PD3Z7_15indexer_service5infra12repositories18indexer_repository5tests44test_from_indexer_db_to_indexer_model_statuss_6case_3
FNDA:1,_RNvNtNtNtNtNtCscvED46PD3Z7_15indexer_service5infra12repositories18indexer_repository5tests44test_from_indexer_db_to_indexer_model_statuss_6case_4
FNDA:1,_RNvNtNtNtNtNtCscvED46PD3Z7_15indexer_service5infra12repositories18indexer_repository5tests44test_from_indexer_db_to_indexer_model_statuss_6case_6
FNDA:1,_RNvNtNtNtNtNtCscvED46PD3Z7_15indexer_service5infra12repositories18indexer_repository5tests44test_from_indexer_db_to_indexer_model_statuss_6case_1
FNDA:0,_RINvXNvXNvNtNtNtCscvED46PD3Z7_15indexer_service5infra12repositories18indexer_repositorys4_1__NtB8_21UpdateIndexerStatusDbNtNtCseK5fOxzA7Ha_5serde2de11Deserialize11deserializeNtB3_14___FieldVisitorNtB1X_7Visitor11visit_bytespEBe_
FNDA:0,_RINvXs_NvXNvNtNtNtCscvED46PD3Z7_15indexer_service5infra12repositories18indexer_repositorys2_1__NtBa_12NewIndexerDbNtNtCseK5fOxzA7Ha_5serde2de11Deserialize11deserializeNtB5_7___FieldB1O_11deserializepEBg_
FNDA:0,_RINvXNvNtNtNtCscvED46PD3Z7_15indexer_service5infra12repositories18indexer_repositorys1_1__NtB5_13IndexerFilterNtNtCseK5fOxzA7Ha_5serde2de11Deserialize11deserializepEBb_
FNDA:0,_RINvXs0_NvXNvNtNtNtCscvED46PD3Z7_15indexer_service5infra12repositories18indexer_repositorys2_1__NtBb_12NewIndexerDbNtNtCseK5fOxzA7Ha_5serde2de11Deserialize11deserializeNtB6_9___VisitorNtB1R_7Visitor9visit_mappEBh_
FNDA:0,_RNCNvXs_NvNtNtNtCscvED46PD3Z7_15indexer_service5infra12repositories18indexer_repositorys3_1__RNtB8_12NewIndexerDbINtNtCs3fArEdILhLk_6diesel10insertable10InsertableNtNtNtNtBc_2db6schema8indexers5tableE6values0Be_
FNDA:0,_RINvXs0_NvXNvNtNtNtCscvED46PD3Z7_15indexer_service5infra12repositories18indexer_repositorys1_1__NtBb_13IndexerFilterNtNtCseK5fOxzA7Ha_5serde2de11Deserialize11deserializeNtB6_9___VisitorNtB1S_7Visitor9visit_mappEBh_
FNDA:0,_RINvXNvNtNtNtCscvED46PD3Z7_15indexer_service5infra12repositories18indexer_repository1__NtB5_9IndexerDbNtNtCseK5fOxzA7Ha_5serde3ser9Serialize9serializepEBb_
FNDA:0,_RINvXNvXNvNtNtNtCscvED46PD3Z7_15indexer_service5infra12repositories18indexer_repositorys2_1__NtB8_12NewIndexerDbNtNtCseK5fOxzA7Ha_5serde2de11Deserialize11deserializeNtB3_14___FieldVisitorNtB1O_7Visitor9visit_strpEBe_
FNDA:0,_RINvXs0_NvXNvNtNtNtCscvED46PD3Z7_15indexer_service5infra12repositories18indexer_repositorys2_1__NtBb_12NewIndexerDbNtNtCseK5fOxzA7Ha_5serde2de11Deserialize11deserializeNtB6_9___VisitorNtB1R_7Visitor9visit_seqpEBh_
FNDA:0,_RINvXNvXNvNtNtNtCscvED46PD3Z7_15indexer_service5infra12repositories18indexer_repositorys1_1__NtB8_13IndexerFilterNtNtCseK5fOxzA7Ha_5serde2de11Deserialize11deserializeNtB3_14___FieldVisitorNtB1P_7Visitor9visit_strpEBe_
FNDA:0,_RINvXs0_NvXNvNtNtNtCscvED46PD3Z7_15indexer_service5infra12repositories18indexer_repositorys1_1__NtBb_13IndexerFilterNtNtCseK5fOxzA7Ha_5serde2de11Deserialize11deserializeNtB6_9___VisitorNtB1S_7Visitor9visit_seqpEBh_
FNDA:0,_RINvXNvXNvNtNtNtCscvED46PD3Z7_15indexer_service5infra12repositories18indexer_repositorys2_1__NtB8_12NewIndexerDbNtNtCseK5fOxzA7Ha_5serde2de11Deserialize11deserializeNtB3_14___FieldVisitorNtB1O_7Visitor9visit_u64pEBe_
FNDA:0,_RNvXs_NtNtNtCscvED46PD3Z7_15indexer_service5infra12repositories18indexer_repositoryNtNtNtNtBa_6domain6models7indexer12IndexerModelINtNtCs7uf0n3bS6vX_4core7convert7TryFromNtB4_12NewIndexerDbE8try_from
FNDA:0,_RINvXNvXNvNtNtNtCscvED46PD3Z7_15indexer_service5infra12repositories18indexer_repositorys1_1__NtB8_13IndexerFilterNtNtCseK5fOxzA7Ha_5serde2de11Deserialize11deserializeNtB3_14___FieldVisitorNtB1P_7Visitor9visit_u64pEBe_
FNDA:0,_RNCNvXs_NvNtNtNtCscvED46PD3Z7_15indexer_service5infra12repositories18indexer_repositorys3_1__RNtB8_12NewIndexerDbINtNtCs3fArEdILhLk_6diesel10insertable10InsertableNtNtNtNtBc_2db6schema8indexers5tableE6valuess_0Be_
FNDA:0,_RINvXs_NvXNvNtNtNtCscvED46PD3Z7_15indexer_service5infra12repositories18indexer_repositorys4_1__NtBa_21UpdateIndexerStatusDbNtNtCseK5fOxzA7Ha_5serde2de11Deserialize11deserializeNtB5_7___FieldB1X_11deserializepEBg_
FNDA:0,_RINvXNvNtNtNtCscvED46PD3Z7_15indexer_service5infra12repositories18indexer_repositorys6_1__NtB5_33UpdateIndexerStatusAndProcessIdDbNtNtCseK5fOxzA7Ha_5serde2de11Deserialize11deserializepEBb_
FNDA:0,_RINvXNvNtNtNtCscvED46PD3Z7_15indexer_service5infra12repositories18indexer_repositorys4_1__NtB5_21UpdateIndexerStatusDbNtNtCseK5fOxzA7Ha_5serde2de11Deserialize11deserializepEBb_
FNDA:0,_RNvXs_NvNtNtNtCscvED46PD3Z7_15indexer_service5infra12repositories18indexer_repositorys3_1__RNtB6_12NewIndexerDbINtNtCs3fArEdILhLk_6diesel10insertable10InsertableNtNtNtNtBa_2db6schema8indexers5tableE6values
FNDA:0,_RINvXNvXNvNtNtNtCscvED46PD3Z7_15indexer_service5infra12repositories18indexer_repositorys6_1__NtB8_33UpdateIndexerStatusAndProcessIdDbNtNtCseK5fOxzA7Ha_5serde2de11Deserialize11deserializeNtB3_14___FieldVisitorNtB29_7Visitor9visit_strpEBe_
FNDA:0,_RINvXs_NvXNvNtNtNtCscvED46PD3Z7_15indexer_service5infra12repositories18indexer_repositorys1_1__NtBa_13IndexerFilterNtNtCseK5fOxzA7Ha_5serde2de11Deserialize11deserializeNtB5_7___FieldB1P_11deserializepEBg_
FNDA:0,_RINvXNvXNvNtNtNtCscvED46PD3Z7_15indexer_service5infra12repositories18indexer_repositorys4_1__NtB8_21UpdateIndexerStatusDbNtNtCseK5fOxzA7Ha_5serde2de11Deserialize11deserializeNtB3_14___FieldVisitorNtB1X_7Visitor9visit_strpEBe_
FNDA:0,_RINvXs0_NvXNvNtNtNtCscvED46PD3Z7_15indexer_service5infra12repositories18indexer_repositorys6_1__NtBb_33UpdateIndexerStatusAndProcessIdDbNtNtCseK5fOxzA7Ha_5serde2de11Deserialize11deserializeNtB6_9___VisitorNtB2c_7Visitor9visit_seqpEBh_
FNDA:0,_RINvXNvXNvNtNtNtCscvED46PD3Z7_15indexer_service5infra12repositories18indexer_repositorys4_1__NtB8_21UpdateIndexerStatusDbNtNtCseK5fOxzA7Ha_5serde2de11Deserialize11deserializeNtB3_14___FieldVisitorNtB1X_7Visitor9visit_u64pEBe_
FNDA:0,_RNvXNvNtNtNtCscvED46PD3Z7_15indexer_service5infra12repositories18indexer_repositorys7_1__NtB4_33UpdateIndexerStatusAndProcessIdDbINtNtCs3fArEdILhLk_6diesel10insertable10InsertableNtNtNtNtB8_2db6schema8indexers5tableE6values
FNDA:0,_RNvXs0_NvXNvNtNtNtCscvED46PD3Z7_15indexer_service5infra12repositories18indexer_repositorys4_1__NtBa_21UpdateIndexerStatusDbNtNtCseK5fOxzA7Ha_5serde2de11Deserialize11deserializeNtB5_9___VisitorNtB1Z_7Visitor9expecting
FNDA:0,_RNvXs0_NvXNvNtNtNtCscvED46PD3Z7_15indexer_service5infra12repositories18indexer_repositorys2_1__NtBa_12NewIndexerDbNtNtCseK5fOxzA7Ha_5serde2de11Deserialize11deserializeNtB5_9___VisitorNtB1Q_7Visitor9expecting
FNDA:0,_RINvXs0_NvXNvNtNtNtCscvED46PD3Z7_15indexer_service5infra12repositories18indexer_repositorys6_1__NtBb_33UpdateIndexerStatusAndProcessIdDbNtNtCseK5fOxzA7Ha_5serde2de11Deserialize11deserializeNtB6_9___VisitorNtB2c_7Visitor9visit_mappEBh_
FNDA:0,_RINvXs0_NvXNvNtNtNtCscvED46PD3Z7_15indexer_service5infra12repositories18indexer_repositorys4_1__NtBb_21UpdateIndexerStatusDbNtNtCseK5fOxzA7Ha_5serde2de11Deserialize11deserializeNtB6_9___VisitorNtB20_7Visitor9visit_seqpEBh_
FNDA:0,_RNvXNvXNvNtNtNtCscvED46PD3Z7_15indexer_service5infra12repositories18indexer_repositorys4_1__NtB7_21UpdateIndexerStatusDbNtNtCseK5fOxzA7Ha_5serde2de11Deserialize11deserializeNtB2_14___FieldVisitorNtB1W_7Visitor9expecting
FNDA:0,_RNvXNvXNvNtNtNtCscvED46PD3Z7_15indexer_service5infra12repositories18indexer_repositorys2_1__NtB7_12NewIndexerDbNtNtCseK5fOxzA7Ha_5serde2de11Deserialize11deserializeNtB2_14___FieldVisitorNtB1N_7Visitor9expecting
FNDA:0,_RNvXNvNtNtNtCscvED46PD3Z7_15indexer_service5infra12repositories18indexer_repositorys5_1__NtB4_21UpdateIndexerStatusDbINtNtCs3fArEdILhLk_6diesel10insertable10InsertableNtNtNtNtB8_2db6schema8indexers5tableE6values
FNDA:0,_RNvXs_NvNtNtNtCscvED46PD3Z7_15indexer_service5infra12repositories18indexer_repositorys7_1__RNtB6_33UpdateIndexerStatusAndProcessIdDbINtNtCs3fArEdILhLk_6diesel10insertable10InsertableNtNtNtNtBa_2db6schema8indexers5tableE6values
FNDA:0,_RINvXs0_NvXNvNtNtNtCscvED46PD3Z7_15indexer_service5infra12repositories18indexer_repositorys4_1__NtBb_21UpdateIndexerStatusDbNtNtCseK5fOxzA7Ha_5serde2de11Deserialize11deserializeNtB6_9___VisitorNtB20_7Visitor9visit_mappEBh_
FNDA:0,_RINvXNvXNvNtNtNtCscvED46PD3Z7_15indexer_service5infra12repositories18indexer_repositorys6_1__NtB8_33UpdateIndexerStatusAndProcessIdDbNtNtCseK5fOxzA7Ha_5serde2de11Deserialize11deserializeNtB3_14___FieldVisitorNtB29_7Visitor9visit_u64pEBe_
FNDA:0,_RNvXNvXNvNtNtNtCscvED46PD3Z7_15indexer_service5infra12repositories18indexer_repositorys6_1__NtB7_33UpdateIndexerStatusAndProcessIdDbNtNtCseK5fOxzA7Ha_5serde2de11Deserialize11deserializeNtB2_14___FieldVisitorNtB28_7Visitor9expecting
FNDA:0,_RINvXNvNtNtNtCscvED46PD3Z7_15indexer_service5infra12repositories18indexer_repositorys2_1__NtB5_12NewIndexerDbNtNtCseK5fOxzA7Ha_5serde2de11Deserialize11deserializepEBb_
FNDA:0,_RNvXs0_NvXNvNtNtNtCscvED46PD3Z7_15indexer_service5infra12repositories18indexer_repositorys1_1__NtBa_13IndexerFilterNtNtCseK5fOxzA7Ha_5serde2de11Deserialize11deserializeNtB5_9___VisitorNtB1R_7Visitor9expecting
FNDA:0,_RINvXNvXNvNtNtNtCscvED46PD3Z7_15indexer_service5infra12repositories18indexer_repositorys6_1__NtB8_33UpdateIndexerStatusAndProcessIdDbNtNtCseK5fOxzA7Ha_5serde2de11Deserialize11deserializeNtB3_14___FieldVisitorNtB29_7Visitor11visit_bytespEBe_
FNDA:0,_RNvXs_NvNtNtNtCscvED46PD3Z7_15indexer_service5infra12repositories18indexer_repositorys5_1__RNtB6_21UpdateIndexerStatusDbINtNtCs3fArEdILhLk_6diesel10insertable10InsertableNtNtNtNtBa_2db6schema8indexers5tableE6values
FNDA:0,_RINvXNvXNvNtNtNtCscvED46PD3Z7_15indexer_service5infra12repositories18indexer_repositorys2_1__NtB8_12NewIndexerDbNtNtCseK5fOxzA7Ha_5serde2de11Deserialize11deserializeNtB3_14___FieldVisitorNtB1O_7Visitor11visit_bytespEBe_
FNDA:0,_RINvXNvXNvNtNtNtCscvED46PD3Z7_15indexer_service5infra12repositories18indexer_repositorys1_1__NtB8_13IndexerFilterNtNtCseK5fOxzA7Ha_5serde2de11Deserialize11deserializeNtB3_14___FieldVisitorNtB1P_7Visitor11visit_bytespEBe_
FNDA:0,_RINvXs_NvXNvNtNtNtCscvED46PD3Z7_15indexer_service5infra12repositories18indexer_repositorys6_1__NtBa_33UpdateIndexerStatusAndProcessIdDbNtNtCseK5fOxzA7Ha_5serde2de11Deserialize11deserializeNtB5_7___FieldB29_11deserializepEBg_
FNDA:0,_RNvNvNtNtNtCscvED46PD3Z7_15indexer_service5infra12repositories18indexer_repositorys0_1__26__check_field_compatibility
FNDA:0,_RNvXs0_NvXNvNtNtNtCscvED46PD3Z7_15indexer_service5infra12repositories18indexer_repositorys6_1__NtBa_33UpdateIndexerStatusAndProcessIdDbNtNtCseK5fOxzA7Ha_5serde2de11Deserialize11deserializeNtB5_9___VisitorNtB2b_7Visitor9expecting
FNDA:0,_RNvXNvXNvNtNtNtCscvED46PD3Z7_15indexer_service5infra12repositories18indexer_repositorys1_1__NtB7_13IndexerFilterNtNtCseK5fOxzA7Ha_5serde2de11Deserialize11deserializeNtB2_14___FieldVisitorNtB1O_7Visitor9expecting
FNDA:60,_RNvXs0_NtNtNtCscvED46PD3Z7_15indexer_service5infra12repositories18indexer_repositoryNtNtNtNtBb_6domain6models7indexer12IndexerModelINtNtCs7uf0n3bS6vX_4core7convert7TryFromNtB5_9IndexerDbE8try_from
FNDA:1,_RNvNtNtNtNtNtCscvED46PD3Z7_15indexer_service5infra12repositories18indexer_repository5tests42test_from_indexer_db_to_indexer_model_types_6case_1
FNDA:1,_RNvNtNtNtNtNtCscvED46PD3Z7_15indexer_service5infra12repositories18indexer_repository5tests42test_from_indexer_db_to_indexer_model_types_6case_2
FNF:36
FNH:28
DA:15,52
DA:27,0
DA:32,16
DA:42,0
DA:49,0
DA:74,19
DA:75,19
DA:76,19
DA:81,10
DA:82,35
DA:83,20
DA:85,15
DA:86,37
DA:87,30
DA:89,3
DA:90,8
DA:91,6
DA:93,4
DA:94,12
DA:95,8
DA:97,5
DA:98,5
DA:99,5
DA:100,5
DA:101,15
DA:102,10
DA:105,10
DA:106,15
DA:107,10
DA:108,10
DA:109,10
DA:110,10
DA:111,20
DA:112,10
DA:113,10
DA:115,10
DA:116,10
DA:118,15
DA:119,15
DA:120,15
DA:121,15
DA:122,15
DA:123,15
DA:124,22
DA:125,15
DA:126,15
DA:128,15
DA:129,15
DA:131,3
DA:132,3
DA:133,3
DA:134,3
DA:135,2
DA:136,2
DA:137,5
DA:139,3
DA:140,3
DA:141,12
DA:142,3
DA:143,3
DA:145,3
DA:146,3
DA:148,4
DA:149,4
DA:150,4
DA:151,4
DA:152,4
DA:153,4
DA:154,4
DA:155,4
DA:156,4
DA:157,8
DA:158,4
DA:159,4
DA:161,4
DA:162,4
DA:164,5
DA:165,5
DA:166,5
DA:167,5
DA:168,5
DA:169,5
DA:170,5
DA:171,5
DA:172,5
DA:173,10
DA:174,5
DA:175,5
DA:177,5
DA:178,5
DA:182,0
DA:183,0
DA:184,0
DA:185,0
DA:186,0
DA:187,0
DA:188,0
DA:189,0
DA:190,0
DA:191,0
DA:192,0
DA:193,0
DA:198,60
DA:199,58
DA:200,60
DA:201,60
DA:202,59
DA:203,59
DA:204,58
DA:205,58
DA:206,58
DA:207,58
DA:208,60
DA:217,6
DA:260,2
BRF:0
BRH:0
LF:126
LH:107
end_of_record
SF:/Users/apoorvsadana/Documents/GitHub/indexer-service/src/main.rs
FN:90,_RNCNCNvCscvED46PD3Z7_15indexer_service14run_migrations00B5_
FN:87,_RNvCscvED46PD3Z7_15indexer_service14run_migrations
FN:70,_RNCNCNvCscvED46PD3Z7_15indexer_service4main00B5_
FN:52,_RNvCscvED46PD3Z7_15indexer_service4main
FN:83,_RNvCscvED46PD3Z7_15indexer_service12init_tracing
FN:52,_RNCNvCscvED46PD3Z7_15indexer_service4main0B3_
FN:88,_RNCNvCscvED46PD3Z7_15indexer_service14run_migrations0B3_
FN:46,_RNvXCscvED46PD3Z7_15indexer_serviceNtB2_8AppStateNtNtCs7uf0n3bS6vX_4core5clone5Clone5clone
FNDA:17,_RNCNCNvCscvED46PD3Z7_15indexer_service14run_migrations00B5_
FNDA:17,_RNvCscvED46PD3Z7_15indexer_service14run_migrations
FNDA:0,_RNCNCNvCscvED46PD3Z7_15indexer_service4main00B5_
FNDA:0,_RNvCscvED46PD3Z7_15indexer_service4main
FNDA:0,_RNvCscvED46PD3Z7_15indexer_service12init_tracing
FNDA:0,_RNCNvCscvED46PD3Z7_15indexer_service4main0B3_
FNDA:17,_RNCNvCscvED46PD3Z7_15indexer_service14run_migrations0B3_
FNDA:463,_RNvXCscvED46PD3Z7_15indexer_serviceNtB2_8AppStateNtNtCs7uf0n3bS6vX_4core5clone5Clone5clone
FNF:8
FNH:4
DA:46,463
DA:52,0
DA:53,0
DA:55,0
DA:57,0
DA:59,0
DA:60,0
DA:61,0
DA:62,0
DA:63,0
DA:64,0
DA:65,0
DA:66,0
DA:67,0
DA:68,0
DA:69,0
DA:70,0
DA:73,0
DA:76,0
DA:78,0
DA:80,0
DA:83,0
DA:84,0
DA:85,0
DA:87,17
DA:88,170
DA:89,17
DA:90,17
DA:91,17
DA:92,17
DA:93,17
DA:94,17
DA:95,17
BRF:0
BRH:0
LF:37
LH:12
end_of_record
SF:/Users/apoorvsadana/Documents/GitHub/indexer-service/src/publishers/indexers.rs
FN:25,_RNCNvNtNtCscvED46PD3Z7_15indexer_service10publishers8indexers22publish_failed_indexer0B7_
FN:27,_RNCNCNvNtNtCscvED46PD3Z7_15indexer_service10publishers8indexers22publish_failed_indexer0s_0B9_
FN:25,_RNCNCNvNtNtCscvED46PD3Z7_15indexer_service10publishers8indexers22publish_failed_indexer00B9_
FN:9,_RNvNtNtCscvED46PD3Z7_15indexer_service10publishers8indexers21publish_start_indexer
FN:24,_RNvNtNtCscvED46PD3Z7_15indexer_service10publishers8indexers22publish_failed_indexer
FN:20,_RNCNCNvNtNtCscvED46PD3Z7_15indexer_service10publishers8indexers21publish_start_indexer0s0_0B9_
FN:10,_RNCNCNvNtNtCscvED46PD3Z7_15indexer_service10publishers8indexers21publish_start_indexer0s_0B9_
FN:15,_RNCNCNvNtNtCscvED46PD3Z7_15indexer_service10publishers8indexers21publish_start_indexer00B9_
FN:10,_RNCNvNtNtCscvED46PD3Z7_15indexer_service10publishers8indexers21publish_start_indexer0B7_
FNDA:0,_RNCNvNtNtCscvED46PD3Z7_15indexer_service10publishers8indexers22publish_failed_indexer0B7_
FNDA:0,_RNCNCNvNtNtCscvED46PD3Z7_15indexer_service10publishers8indexers22publish_failed_indexer0s_0B9_
FNDA:0,_RNCNCNvNtNtCscvED46PD3Z7_15indexer_service10publishers8indexers22publish_failed_indexer00B9_
FNDA:11,_RNvNtNtCscvED46PD3Z7_15indexer_service10publishers8indexers21publish_start_indexer
FNDA:1,_RNvNtNtCscvED46PD3Z7_15indexer_service10publishers8indexers22publish_failed_indexer
FNDA:0,_RNCNCNvNtNtCscvED46PD3Z7_15indexer_service10publishers8indexers21publish_start_indexer0s0_0B9_
FNDA:0,_RNCNCNvNtNtCscvED46PD3Z7_15indexer_service10publishers8indexers21publish_start_indexer0s_0B9_
FNDA:0,_RNCNCNvNtNtCscvED46PD3Z7_15indexer_service10publishers8indexers21publish_start_indexer00B9_
FNDA:0,_RNCNvNtNtCscvED46PD3Z7_15indexer_service10publishers8indexers21publish_start_indexer0B7_
FNF:9
FNH:2
DA:9,11
DA:10,0
DA:11,11
DA:12,11
DA:13,11
DA:14,11
DA:15,11
DA:16,11
DA:18,60
DA:19,9
DA:20,0
DA:21,9
DA:22,9
DA:24,1
DA:25,0
DA:26,5
DA:27,0
DA:28,1
DA:29,1
BRF:0
BRH:0
LF:24
LH:15
end_of_record
SF:/Users/apoorvsadana/Documents/GitHub/indexer-service/src/publishers/mod.rs
FN:7,_RNvNtCscvED46PD3Z7_15indexer_service10publishers16send_sqs_message
FN:8,_RNCNvNtCscvED46PD3Z7_15indexer_service10publishers16send_sqs_message0B5_
FNDA:12,_RNvNtCscvED46PD3Z7_15indexer_service10publishers16send_sqs_message
FNDA:12,_RNCNvNtCscvED46PD3Z7_15indexer_service10publishers16send_sqs_message0B5_
FNF:2
FNH:2
DA:7,12
DA:8,12
DA:9,65
DA:10,10
DA:11,10
BRF:0
BRH:0
LF:5
LH:5
end_of_record
SF:/Users/apoorvsadana/Documents/GitHub/indexer-service/src/routes.rs
FN:33,_RNvNtCscvED46PD3Z7_15indexer_service6routes13global_routes
FN:13,_RNvNtCscvED46PD3Z7_15indexer_service6routes10app_router
FN:20,_RNCNvNtCscvED46PD3Z7_15indexer_service6routes11handler_4040B5_
FN:24,_RNvNtCscvED46PD3Z7_15indexer_service6routes15indexers_routes
FN:20,_RNvNtCscvED46PD3Z7_15indexer_service6routes11handler_404
FNDA:11,_RNvNtCscvED46PD3Z7_15indexer_service6routes13global_routes
FNDA:11,_RNvNtCscvED46PD3Z7_15indexer_service6routes10app_router
FNDA:1,_RNCNvNtCscvED46PD3Z7_15indexer_service6routes11handler_4040B5_
FNDA:11,_RNvNtCscvED46PD3Z7_15indexer_service6routes15indexers_routes
FNDA:1,_RNvNtCscvED46PD3Z7_15indexer_service6routes11handler_404
FNF:5
FNH:5
DA:13,11
DA:14,11
DA:15,11
DA:16,11
DA:17,11
DA:18,11
DA:20,1
DA:21,1
DA:22,1
DA:24,11
DA:25,11
DA:26,11
DA:27,11
DA:28,11
DA:29,11
DA:30,11
DA:31,11
DA:33,11
DA:34,11
DA:35,11
BRF:0
BRH:0
LF:21
LH:21
end_of_record
SF:/Users/apoorvsadana/Documents/GitHub/indexer-service/src/types/sqs.rs
FN:4,_RINvXNvXNvNtNtCscvED46PD3Z7_15indexer_service5types3sqss_1__NtB8_19StartIndexerRequestNtNtCseK5fOxzA7Ha_5serde2de11Deserialize11deserializeNtB3_14___FieldVisitorNtB1o_7Visitor11visit_bytespEBc_
FN:4,_RINvXs0_NvXNvNtNtCscvED46PD3Z7_15indexer_service5types3sqss_1__NtBb_19StartIndexerRequestNtNtCseK5fOxzA7Ha_5serde2de11Deserialize11deserializeNtB6_9___VisitorNtB1r_7Visitor9visit_mappEBf_
FN:4,_RNvXs0_NvXNvNtNtCscvED46PD3Z7_15indexer_service5types3sqss_1__NtBa_19StartIndexerRequestNtNtCseK5fOxzA7Ha_5serde2de11Deserialize11deserializeNtB5_9___VisitorNtB1q_7Visitor9expecting
FN:4,_RNvXNvXNvNtNtCscvED46PD3Z7_15indexer_service5types3sqss_1__NtB7_19StartIndexerRequestNtNtCseK5fOxzA7Ha_5serde2de11Deserialize11deserializeNtB2_14___FieldVisitorNtB1n_7Visitor9expecting
FN:4,_RINvXNvNtNtCscvED46PD3Z7_15indexer_service5types3sqss_1__NtB5_19StartIndexerRequestNtNtCseK5fOxzA7Ha_5serde2de11Deserialize11deserializepEB9_
FN:4,_RINvXNvXNvNtNtCscvED46PD3Z7_15indexer_service5types3sqss_1__NtB8_19StartIndexerRequestNtNtCseK5fOxzA7Ha_5serde2de11Deserialize11deserializeNtB3_14___FieldVisitorNtB1o_7Visitor9visit_strpEBc_
FN:4,_RINvXs_NvXNvNtNtCscvED46PD3Z7_15indexer_service5types3sqss_1__NtBa_19StartIndexerRequestNtNtCseK5fOxzA7Ha_5serde2de11Deserialize11deserializeNtB5_7___FieldB1o_11deserializepEBe_
FN:4,_RINvXs0_NvXNvNtNtCscvED46PD3Z7_15indexer_service5types3sqss_1__NtBb_19StartIndexerRequestNtNtCseK5fOxzA7Ha_5serde2de11Deserialize11deserializeNtB6_9___VisitorNtB1r_7Visitor9visit_seqpEBf_
FN:4,_RINvXNvXNvNtNtCscvED46PD3Z7_15indexer_service5types3sqss_1__NtB8_19StartIndexerRequestNtNtCseK5fOxzA7Ha_5serde2de11Deserialize11deserializeNtB3_14___FieldVisitorNtB1o_7Visitor9visit_u64pEBc_
FN:4,_RNvXNtNtCscvED46PD3Z7_15indexer_service5types3sqsNtB2_19StartIndexerRequestNtNtCs7uf0n3bS6vX_4core3fmt5Debug3fmt
FN:4,_RINvXNvNtNtCscvED46PD3Z7_15indexer_service5types3sqs1__NtB5_19StartIndexerRequestNtNtCseK5fOxzA7Ha_5serde3ser9Serialize9serializeQINtNtCsh37VWHmGiB8_10serde_json3ser10SerializerQINtNtCsRh6ZQ68Vja_5alloc3vec3VechEEEB9_
FNDA:0,_RINvXNvXNvNtNtCscvED46PD3Z7_15indexer_service5types3sqss_1__NtB8_19StartIndexerRequestNtNtCseK5fOxzA7Ha_5serde2de11Deserialize11deserializeNtB3_14___FieldVisitorNtB1o_7Visitor11visit_bytespEBc_
FNDA:0,_RINvXs0_NvXNvNtNtCscvED46PD3Z7_15indexer_service5types3sqss_1__NtBb_19StartIndexerRequestNtNtCseK5fOxzA7Ha_5serde2de11Deserialize11deserializeNtB6_9___VisitorNtB1r_7Visitor9visit_mappEBf_
FNDA:0,_RNvXs0_NvXNvNtNtCscvED46PD3Z7_15indexer_service5types3sqss_1__NtBa_19StartIndexerRequestNtNtCseK5fOxzA7Ha_5serde2de11Deserialize11deserializeNtB5_9___VisitorNtB1q_7Visitor9expecting
FNDA:0,_RNvXNvXNvNtNtCscvED46PD3Z7_15indexer_service5types3sqss_1__NtB7_19StartIndexerRequestNtNtCseK5fOxzA7Ha_5serde2de11Deserialize11deserializeNtB2_14___FieldVisitorNtB1n_7Visitor9expecting
FNDA:0,_RINvXNvNtNtCscvED46PD3Z7_15indexer_service5types3sqss_1__NtB5_19StartIndexerRequestNtNtCseK5fOxzA7Ha_5serde2de11Deserialize11deserializepEB9_
FNDA:0,_RINvXNvXNvNtNtCscvED46PD3Z7_15indexer_service5types3sqss_1__NtB8_19StartIndexerRequestNtNtCseK5fOxzA7Ha_5serde2de11Deserialize11deserializeNtB3_14___FieldVisitorNtB1o_7Visitor9visit_strpEBc_
FNDA:0,_RINvXs_NvXNvNtNtCscvED46PD3Z7_15indexer_service5types3sqss_1__NtBa_19StartIndexerRequestNtNtCseK5fOxzA7Ha_5serde2de11Deserialize11deserializeNtB5_7___FieldB1o_11deserializepEBe_
FNDA:0,_RINvXs0_NvXNvNtNtCscvED46PD3Z7_15indexer_service5types3sqss_1__NtBb_19StartIndexerRequestNtNtCseK5fOxzA7Ha_5serde2de11Deserialize11deserializeNtB6_9___VisitorNtB1r_7Visitor9visit_seqpEBf_
FNDA:0,_RINvXNvXNvNtNtCscvED46PD3Z7_15indexer_service5types3sqss_1__NtB8_19StartIndexerRequestNtNtCseK5fOxzA7Ha_5serde2de11Deserialize11deserializeNtB3_14___FieldVisitorNtB1o_7Visitor9visit_u64pEBc_
FNDA:0,_RNvXNtNtCscvED46PD3Z7_15indexer_service5types3sqsNtB2_19StartIndexerRequestNtNtCs7uf0n3bS6vX_4core3fmt5Debug3fmt
FNDA:17,_RINvXNvNtNtCscvED46PD3Z7_15indexer_service5types3sqs1__NtB5_19StartIndexerRequestNtNtCseK5fOxzA7Ha_5serde3ser9Serialize9serializeQINtNtCsh37VWHmGiB8_10serde_json3ser10SerializerQINtNtCsRh6ZQ68Vja_5alloc3vec3VechEEEB9_
FNF:3
FNH:1
DA:4,17
BRF:0
BRH:0
LF:3
LH:1
end_of_record
SF:/Users/apoorvsadana/Documents/GitHub/indexer-service/src/utils/custom_extractors/json_extractor.rs
FN:7,_RNCNvXININtNtNtCscvED46PD3Z7_15indexer_service5utils17custom_extractors14json_extractors_0pppEINtB7_13JsonExtractorpEINtNtCs25zxz7FrUeM_9axum_core7extract11FromRequestppE12from_request0Bd_
FN:11,_RNvXNtNtNtCscvED46PD3Z7_15indexer_service5utils17custom_extractors14json_extractorNtNtB8_6errors8AppErrorINtNtCs7uf0n3bS6vX_4core7convert4FromNtNtNtCsgQRRAwnb2Jc_4axum7extract9rejection13JsonRejectionE4from
FN:7,_RNvXININtNtNtCscvED46PD3Z7_15indexer_service5utils17custom_extractors14json_extractors_0pppEINtB5_13JsonExtractorpEINtNtCs25zxz7FrUeM_9axum_core7extract11FromRequestppE12from_requestBb_
FN:6,_RNCNCNvXININtNtNtCscvED46PD3Z7_15indexer_service5utils17custom_extractors14json_extractors_0pppEINtB9_13JsonExtractorpEINtNtCs25zxz7FrUeM_9axum_core7extract11FromRequestppE12from_request00Bf_
FNDA:0,_RNCNvXININtNtNtCscvED46PD3Z7_15indexer_service5utils17custom_extractors14json_extractors_0pppEINtB7_13JsonExtractorpEINtNtCs25zxz7FrUeM_9axum_core7extract11FromRequestppE12from_request0Bd_
FNDA:0,_RNvXNtNtNtCscvED46PD3Z7_15indexer_service5utils17custom_extractors14json_extractorNtNtB8_6errors8AppErrorINtNtCs7uf0n3bS6vX_4core7convert4FromNtNtNtCsgQRRAwnb2Jc_4axum7extract9rejection13JsonRejectionE4from
FNDA:0,_RNvXININtNtNtCscvED46PD3Z7_15indexer_service5utils17custom_extractors14json_extractors_0pppEINtB5_13JsonExtractorpEINtNtCs25zxz7FrUeM_9axum_core7extract11FromRequestppE12from_requestBb_
FNDA:0,_RNCNCNvXININtNtNtCscvED46PD3Z7_15indexer_service5utils17custom_extractors14json_extractors_0pppEINtB9_13JsonExtractorpEINtNtCs25zxz7FrUeM_9axum_core7extract11FromRequestppE12from_request00Bf_
FNF:3
FNH:0
DA:6,0
DA:7,0
DA:11,0
DA:12,0
DA:13,0
BRF:0
BRH:0
LF:5
LH:0
end_of_record
SF:/Users/apoorvsadana/Documents/GitHub/indexer-service/src/utils/custom_extractors/path_extractor.rs
FN:6,_RNCNCNvXs_NtNtNtCscvED46PD3Z7_15indexer_service5utils17custom_extractors14path_extractorINtB8_13PathExtractorNtCsg2ZXmxHLrDZ_4uuid4UuidEINtNtCs25zxz7FrUeM_9axum_core7extract16FromRequestPartsNtBe_8AppStateE18from_request_parts00Be_
FN:7,_RNCNvXs_NtNtNtCscvED46PD3Z7_15indexer_service5utils17custom_extractors14path_extractorINtB6_13PathExtractorNtCsg2ZXmxHLrDZ_4uuid4UuidEINtNtCs25zxz7FrUeM_9axum_core7extract16FromRequestPartsNtBc_8AppStateE18from_request_parts0Bc_
FN:6,_RNvXININtNtNtCscvED46PD3Z7_15indexer_service5utils17custom_extractors14path_extractors0_0pEINtB5_13PathExtractorpENtNtCs7uf0n3bS6vX_4core3fmt5Debug3fmtBb_
FN:11,_RNvXNtNtNtCscvED46PD3Z7_15indexer_service5utils17custom_extractors14path_extractorNtNtB8_6errors8AppErrorINtNtCs7uf0n3bS6vX_4core7convert4FromNtNtNtCsgQRRAwnb2Jc_4axum7extract9rejection13PathRejectionE4from
FNDA:6,_RNCNCNvXs_NtNtNtCscvED46PD3Z7_15indexer_service5utils17custom_extractors14path_extractorINtB8_13PathExtractorNtCsg2ZXmxHLrDZ_4uuid4UuidEINtNtCs25zxz7FrUeM_9axum_core7extract16FromRequestPartsNtBe_8AppStateE18from_request_parts00Be_
FNDA:6,_RNCNvXs_NtNtNtCscvED46PD3Z7_15indexer_service5utils17custom_extractors14path_extractorINtB6_13PathExtractorNtCsg2ZXmxHLrDZ_4uuid4UuidEINtNtCs25zxz7FrUeM_9axum_core7extract16FromRequestPartsNtBc_8AppStateE18from_request_parts0Bc_
FNDA:0,_RNvXININtNtNtCscvED46PD3Z7_15indexer_service5utils17custom_extractors14path_extractors0_0pEINtB5_13PathExtractorpENtNtCs7uf0n3bS6vX_4core3fmt5Debug3fmtBb_
FNDA:0,_RNvXNtNtNtCscvED46PD3Z7_15indexer_service5utils17custom_extractors14path_extractorNtNtB8_6errors8AppErrorINtNtCs7uf0n3bS6vX_4core7convert4FromNtNtNtCsgQRRAwnb2Jc_4axum7extract9rejection13PathRejectionE4from
FNF:4
FNH:2
DA:6,6
DA:7,12
DA:11,0
DA:12,0
DA:13,0
BRF:0
BRH:0
LF:6
LH:2
end_of_record
SF:/Users/apoorvsadana/Documents/GitHub/indexer-service/src/utils/env.rs
FN:2,_RNCNvNtNtCscvED46PD3Z7_15indexer_service5utils3env24get_environment_variable0B7_
FN:1,_RNvNtNtCscvED46PD3Z7_15indexer_service5utils3env24get_environment_variable
FNDA:0,_RNCNvNtNtCscvED46PD3Z7_15indexer_service5utils3env24get_environment_variable0B7_
FNDA:38,_RNvNtNtCscvED46PD3Z7_15indexer_service5utils3env24get_environment_variable
FNF:2
FNH:1
DA:1,38
DA:2,38
DA:3,38
BRF:0
BRH:0
LF:4
LH:3
end_of_record